(dp1
S'raining'
p2
I5111
sS'childern'
p3
I7706
sS'yellow'
p4
I58
sS'griding'
p5
I7222
sS'four'
p6
I119
sS'fleeces'
p7
I6812
sS'woods'
p8
I240
sS'hanging'
p9
I293
sS'woody'
p10
I6194
sS'marching'
p11
I1276
sS'someplace'
p12
I5588
sS'canes'
p13
I5378
sS'seidwalk'
p14
I5985
sS'advantage'
p15
I7365
sS'snowing'
p16
I2798
sS'sunlit'
p17
I8478
sS'pyranha'
p18
I5582
sS'shaving'
p19
I7087
sS'sinking'
p20
I4235
sS'helemt'
p21
I5974
sS'shielding'
p22
I4586
sS'battles'
p23
I3316
sS'foul'
p24
I7617
sS'antoher'
p25
I8092
sS'bringing'
p26
I2827
sS'wooded'
p27
I418
sS'equpitment'
p28
I7121
sS'prize'
p29
I3369
sS'wooden'
p30
I195
sS'satchel'
p31
I4578
sS'piling'
p32
I6368
sS'crotch'
p33
I6025
sS'gorup'
p34
I7472
sS'sailboarder'
p35
I6524
sS'ornamental'
p36
I3694
sS'glassy'
p37
I8452
sS'tired'
p38
I3457
sS'snuggles'
p39
I4313
sS'railing'
p40
I383
sS'tires'
p41
I1122
sS'elegant'
p42
I2808
sS'second'
p43
I1472
sS'tether'
p44
I3478
sS'blouse'
p45
I4351
sS'slurpees'
p46
I8420
sS'boogie'
p47
I1316
sS'sooners'
p48
I1052
sS'fingers'
p49
I972
sS'dangles'
p50
I4392
sS'numeral'
p51
I6378
sS'pawed'
p52
I7052
sS'shocks'
p53
I8048
sS'crouch'
p54
I3448
sS'chins'
p55
I4864
sS'here'
p56
I8079
sS'herd'
p57
I2894
sS'reported'
p58
I7114
sS'china'
p59
I3255
sS'cart'
p60
I460
sS'hers'
p61
I4773
sS'buddy'
p62
I8461
sS'kids'
p63
I174
sS'elaborate'
p64
I1789
sS'climbed'
p65
I3099
sS'electricity'
p66
I5746
sS'military'
p67
I998
sS'climbes'
p68
I8342
sS'climber'
p69
I356
sS'stringless'
p70
I7553
sS'golden'
p71
I391
sS'secluded'
p72
I7367
sS'bannister'
p73
I7505
sS'orangish'
p74
I6888
sS'brought'
p75
I5314
sS'sledder'
p76
I4857
sS'endzone'
p77
I5934
sS'opponents'
p78
I3079
sS'painters'
p79
I5989
sS'spoke'
p80
I7501
sS'browse'
p81
I5081
sS'music'
p82
I907
sS'telegraph'
p83
I7518
sS'strike'
p84
I2702
sS'dacshund'
p85
I7049
sS'females'
p86
I1466
sS'holy'
p87
I7560
sS'relax'
p88
I2764
sS'brings'
p89
I3069
sS'glass'
p90
I612
sS'tying'
p91
I4177
sS'waeribng'
p92
I5385
sS'90'
p93
I6773
sS'hole'
p94
I861
sS'hold'
p95
I467
sS'97'
p96
I7534
sS'locked'
p97
I3663
sS'paddlers'
p98
I4162
sS'pompadour'
p99
I6254
sS'straddle'
p100
I4674
sS'locker'
p101
I7089
sS'leaped'
p102
I3811
sS'cubicle'
p103
I6832
sS'wand'
p104
I1760
sS'organized'
p105
I8347
sS'leotards'
p106
I8101
sS'dragons'
p107
I8166
sS'caution'
p108
I2452
sS'reviewing'
p109
I4432
sS'travel'
p110
I2325
sS'feature'
p111
I3517
sS'machine'
p112
I959
sS'how'
p113
I1392
sS'hot'
p114
I1003
sS'hop'
p115
I5764
sS'beauty'
p116
I3147
sS'shored'
p117
I6363
sS'sippy'
p118
I3494
sS'bodyless'
p119
I6518
sS'diagram'
p120
I5650
sS'types'
p121
I7317
sS'colorfully'
p122
I2345
sS'youths'
p123
I4965
sS'cigarettes'
p124
I2433
sS'snowballs'
p125
I7096
sS'keeps'
p126
I2845
sS'wind'
p127
I1368
sS'wine'
p128
I1244
sS'hapily'
p129
I7393
sS'murals'
p130
I4517
sS'welcomes'
p131
I5306
sS'pleople'
p132
I7283
sS'fit'
p133
I3277
sS'blader'
p134
I6930
sS'screaming'
p135
I2908
sS'backpack'
p136
I300
sS'fig'
p137
I6383
sS'chiseling'
p138
I5841
sS'hidden'
p139
I4185
sS'doghouse'
p140
I3761
sS'colonial'
p141
I4795
sS'angerly'
p142
I5516
sS'effects'
p143
I6853
sS'schools'
p144
I6328
sS'silver'
p145
I572
sS'bricks'
p146
I2659
sS'whacking'
p147
I5495
sS'grasslands'
p148
I6026
sS'dumps'
p149
I2545
sS'skills'
p150
I3554
sS'noticable'
p151
I5698
sS'timeout'
p152
I4467
sS'demonstarting'
p153
I6308
sS'development'
p154
I5997
sS'whil'
p155
I8408
sS'rink'
p156
I976
sS'series'
p157
I2582
sS'whie'
p158
I6126
sS'spider'
p159
I2073
sS'bowls'
p160
I2030
sS'xmen'
p161
I7739
sS'adoring'
p162
I7759
sS'cathedral'
p163
I7614
sS'whit'
p164
I3900
sS'message'
p165
I7833
sS'rv'
p166
I2870
sS'touts'
p167
I6622
sS'smu'
p168
I4856
sS'carying'
p169
I3007
sS're'
p170
I8437
sS'guitarists'
p171
I7252
sS'peddles'
p172
I7597
sS'candidate'
p173
I6614
sS'underfoot'
p174
I6806
sS'pumpkins'
p175
I1963
sS'sheet'
p176
I1360
sS'knit'
p177
I1105
sS'speedo'
p178
I2744
sS'ate'
p179
I6522
sS'exposing'
p180
I4827
sS'shelves'
p181
I3717
sS'atm'
p182
I2979
sS'flurry'
p183
I7218
sS'ups'
p184
I8277
sS'atv'
p185
I830
sS'spindle'
p186
I7256
sS'musicians'
p187
I1387
sS'speeds'
p188
I1561
sS'dodgeball'
p189
I5070
sS'snowpants'
p190
I8435
sS'playfully'
p191
I941
sS'spinning'
p192
I925
sS'bitten'
p193
I2399
sS'rhododendron'
p194
I6015
sS'basketball'
p195
I153
sS'similarly'
p196
I3963
sS'rummages'
p197
I5311
sS'cooling'
p198
I3547
sS'master'
p199
I3108
sS'blossoms'
p200
I4032
sS'critter'
p201
I6265
sS'legs'
p202
I341
sS'cushions'
p203
I6303
sS'lunges'
p204
I2439
sS'peddled'
p205
I7595
sS'lavender'
p206
I3975
sS'crawl'
p207
I4183
sS'plushie'
p208
I2805
sS'trek'
p209
I5137
sS'backset'
p210
I7026
sS'icicle'
p211
I3135
sS'werewolf'
p212
I6697
sS'tree'
p213
I139
sS'rusty'
p214
I2238
sS'nations'
p215
I7840
sS'shower'
p216
I1273
sS'dozes'
p217
I4611
sS'girder'
p218
I4499
sS'runner'
p219
I826
sS'boston'
p220
I1969
sS'hoddie'
p221
I8353
sS'paddles'
p222
I916
sS'peacoat'
p223
I5609
sS'shrubs'
p224
I2503
sS'paddled'
p225
I3847
sS'dozen'
p226
I5820
sS'escalator'
p227
I2258
sS'concrete'
p228
I370
sS'bleachers'
p229
I1420
sS'soaked'
p230
I1713
sS'eagerly'
p231
I6048
sS'metallic'
p232
I4836
sS'racers'
p233
I1464
sS'causing'
p234
I3285
sS'instructs'
p235
I7033
sS'doors'
p236
I1693
sS'grips'
p237
I4078
sS'soaker'
p238
I6269
sS'paintbrush'
p239
I4948
sS'crossbones'
p240
I2400
sS'object'
p241
I307
sS'looming'
p242
I4317
sS'landmark'
p243
I7028
sS'mouth'
p244
I67
sS'letter'
p245
I3228
sS'videotaping'
p246
I3864
sS'retaining'
p247
I3451
sS'thriller'
p248
I4744
sS'barechested'
p249
I4933
sS'dummy'
p250
I3035
sS'singer'
p251
I1964
sS'tightropes'
p252
I8285
sS'grove'
p253
I4257
sS'camp'
p254
I2444
sS'rotary'
p255
I6941
sS'multiracial'
p256
I5168
sS'cami'
p257
I5718
sS'camo'
p258
I2152
sS'marvel'
p259
I8245
sS'saying'
p260
I1890
sS'cooking'
p261
I1747
sS'padded'
p262
I2029
sS'participate'
p263
I1479
sS'recliner'
p264
I4850
sS'reclines'
p265
I4381
sS'capes'
p266
I2882
sS'touches'
p267
I1288
sS'busy'
p268
I421
sS'quaint'
p269
I8213
sS'menu'
p270
I3994
sS'underpants'
p271
I5241
sS'bust'
p272
I4562
sS'busk'
p273
I7002
sS'bush'
p274
I1541
sS'furocious'
p275
I5893
sS'touched'
p276
I3040
sS'rice'
p277
I4957
sS'emphatically'
p278
I6148
sS'plate'
p279
I890
sS'cartwheels'
p280
I2573
sS'pocket'
p281
I3652
sS'muxzzled'
p282
I6007
sS'cushion'
p283
I1798
sS'plats'
p284
I5599
sS'tips'
p285
I2875
sS'greens'
p286
I6407
sS'nicely'
p287
I4719
sS'tights'
p288
I1828
sS'boarder'
p289
I2337
sS'dipping'
p290
I8056
sS'patch'
p291
I1151
sS'piggy'
p292
I2629
sS'flanked'
p293
I8222
sS'boarded'
p294
I4575
sS'fitls'
p295
I5727
sS'traverse'
p296
I4277
sS'fair'
p297
I851
sS'perfors'
p298
I7202
sS'branding'
p299
I6412
sS'pads'
p300
I2075
sS'hero'
p301
I4550
sS'hammer'
p302
I3144
sS'best'
p303
I5023
sS'lots'
p304
I1146
sS'sombrero'
p305
I5131
sS'shirted'
p306
I2079
sS'score'
p307
I1921
sS'cubby'
p308
I5804
sS'pirate'
p309
I1285
sS'skimpy'
p310
I1733
sS'claws'
p311
I6874
sS'nature'
p312
I2544
sS'rolled'
p313
I1910
sS'smelled'
p314
I8455
sS'wheelbarrow'
p315
I2363
sS'dons'
p316
I6564
sS'roller'
p317
I889
sS'accident'
p318
I4750
sS'country'
p319
I881
sS'pits'
p320
I7551
sS'adventurer'
p321
I6133
sS'heating'
p322
I8050
sS'incense'
p323
I3359
sS'bodysuit'
p324
I4718
sS'bodysurfs'
p325
I8480
sS'wipeout'
p326
I6715
sS'excites'
p327
I7540
sS'and'
p328
I7
sS'sheepdog'
p329
I3246
sS'swinger'
p330
I6131
sS'canyon'
p331
I1906
sS'gleaming'
p332
I7287
sS'brindle'
p333
I2338
sS'blonde'
p334
I252
sS'grazing'
p335
I8214
sS'contestants'
p336
I6110
sS'lighthouse'
p337
I3721
sS'watercraft'
p338
I1874
sS'skatepark'
p339
I3317
sS'chrome'
p340
I5176
sS'fro'
p341
I5950
sS'.'
I2
sS'startled'
p342
I5087
sS'stadium'
p343
I799
sS'cub'
p344
I7497
sS'dots'
p345
I2855
sS'obese'
p346
I8073
sS'life'
p347
I470
sS'eastern'
p348
I1190
sS'conifers'
p349
I6343
sS'worker'
p350
I1437
sS'dave'
p351
I5863
sS'lift'
p352
I1205
sS'toboggan'
p353
I3125
sS'child'
p354
I42
sS'chili'
p355
I4066
sS'spin'
p356
I4019
sS'thows'
p357
I6295
sS'paraglides'
p358
I6921
sS'paraglider'
p359
I3562
sS'contemplates'
p360
I4135
sS'excersise'
p361
I6525
sS'skirts'
p362
I1148
sS'canoeing'
p363
I2320
sS'played'
p364
I1308
sS'playes'
p365
I7552
sS'player'
p366
I90
sS'piercings'
p367
I3814
sS'violin'
p368
I970
sS'memorial'
p369
I3467
sS'things'
p370
I1905
sS'dhe'
p371
I7389
sS'split'
p372
I2859
sS'babies'
p373
I1748
sS'skateboards'
p374
I739
sS'european'
p375
I1912
sS'fairly'
p376
I7480
sS'marches'
p377
I3253
sS'tops'
p378
I1469
sS'photographers'
p379
I2952
sS'tune'
p380
I6568
sS'askance'
p381
I5304
sS'burgers'
p382
I5340
sS'goofing'
p383
I7892
sS'eagle'
p384
I2259
sS'corporate'
p385
I7985
sS'recoils'
p386
I5040
sS'gigolo'
p387
I3282
sS'sleeps'
p388
I1300
sS'distribute'
p389
I6916
sS'moonwalk'
p390
I4483
sS'disguise'
p391
I6875
sS'waterboard'
p392
I7811
sS'shading'
p393
I6425
sS'rushing'
p394
I3087
sS'lasso'
p395
I2426
sS'enters'
p396
I7652
sS'mobility'
p397
I8232
sS'had'
p398
I2709
sS'breakdances'
p399
I7310
sS'hay'
p400
I856
sS'easy'
p401
I7400
sS'prison'
p402
I7062
sS'duffel'
p403
I4630
sS'has'
p404
I107
sS'hat'
p405
I94
sS'ilks'
p406
I8291
sS'eldery'
p407
I4898
sS'elevation'
p408
I3100
sS'casually'
p409
I3064
sS'fishscales'
p410
I7884
sS'posed'
p411
I2534
sS'possible'
p412
I4223
sS'possibly'
p413
I4702
sS'wiht'
p414
I5756
sS'clustered'
p415
I5469
sS'shadow'
p416
I927
sS'unique'
p417
I2913
sS'contestent'
p418
I6112
sS'bushy'
p419
I3788
sS'seaside'
p420
I6847
sS'pavement'
p421
I727
sS'steps'
p422
I308
sS'right'
p423
I438
sS'old'
p424
I281
sS'creek'
p425
I780
sS'crowd'
p426
I111
sS'people'
p427
I22
sS'crown'
p428
I1771
sS'crows'
p429
I8113
sS'peoplw'
p430
I5772
sS'billboard'
p431
I1957
sS'ump'
p432
I7920
sS'for'
p433
I70
sS'bottom'
p434
I769
sS'fox'
p435
I5773
sS'creative'
p436
I8295
sS'fog'
p437
I2540
sS'exposition'
p438
I7038
sS'stingray'
p439
I6146
sS'shakes'
p440
I859
sS'trampoline'
p441
I372
sS'starring'
p442
I2124
sS'pinches'
p443
I6891
sS'losing'
p444
I7853
sS'bowing'
p445
I7700
sS'emits'
p446
I7359
sS'benches'
p447
I1310
sS'spangles'
p448
I8378
sS'citizens'
p449
I7650
sS'o'
I1851
sS'slightly'
p450
I1465
sS'iguanas'
p451
I5436
sS'raised'
p452
I1101
sS'facility'
p453
I3549
sS'surounded'
p454
I6144
sS'son'
p455
I1895
sS'magazines'
p456
I2106
sS'raises'
p457
I874
sS'mambo'
p458
I3939
sS'wrap'
p459
I3758
sS'sox'
p460
I3592
sS'shoots'
p461
I1737
sS'polaris'
p462
I3424
sS'fabric'
p463
I1410
sS'waits'
p464
I782
sS'support'
p465
I2746
sS'tame'
p466
I7849
sS'grasping'
p467
I4284
sS'call'
p468
I3281
sS'overhang'
p469
I2298
sS'happy'
p470
I1274
sS'spurting'
p471
I6104
sS'manmade'
p472
I6056
sS'amuseument'
p473
I4507
sS'straggle'
p474
I7930
sS'onlooker'
p475
I4624
sS'paneled'
p476
I4481
sS'rippling'
p477
I6472
sS'inside'
p478
I280
sS'devices'
p479
I3702
sS'r.v.'
p480
I8320
sS'entangles'
p481
I7573
sS'lays'
p482
I645
sS'smashed'
p483
I8283
sS'passenger'
p484
I3835
sS'looms'
p485
I7517
sS'cliffside'
p486
I3648
sS'157'
p487
I7910
sS'tournament'
p488
I2612
sS'bathrobe'
p489
I2587
sS'atvs'
p490
I3429
sS'paperwork'
p491
I2243
sS'supporters'
p492
I6616
sS'dotted'
p493
I3692
sS'floor'
p494
I310
sS'glacier'
p495
I2536
sS"tikes'"
p496
I6284
sS'crowns'
p497
I5288
sS'flood'
p498
I4328
sS'protester'
p499
I5008
sS'campflauge'
p500
I5717
sS'smell'
p501
I4338
sS'roll'
p502
I1961
sS'ripstik'
p503
I5833
sS'greenery'
p504
I2451
sS"'s"
p505
I149
sS'lollipops'
p506
I7939
sS'models'
p507
I5268
sS'smelling'
p508
I2409
sS'rolling'
p509
I698
sS'explosions'
p510
I6854
sS'fastened'
p511
I6322
sS'sniffed'
p512
I4515
sS'glvoes'
p513
I7097
sS'time'
p514
I1199
sS'push'
p515
I1520
sS'banners'
p516
I2412
sS'gown'
p517
I1979
sS'chain'
p518
I888
sS'firecracker'
p519
I6903
sS'crocodile'
p520
I2797
sS'skate'
p521
I528
sS'skiing'
p522
I379
sS'trashcan'
p523
I1777
sS'convoy'
p524
I7793
sS'chair'
p525
I343
sS'midst'
p526
I1563
sS'ballet'
p527
I2066
sS'uneven'
p528
I6074
sS'crates'
p529
I4453
sS'bicycles'
p530
I658
sS'bicycler'
p531
I2052
sS'carpenters'
p532
I6681
sS'fatigues'
p533
I3270
sS'icing'
p534
I5099
sS'prances'
p535
I4216
sS'choice'
p536
I5647
sS'ghostbusters'
p537
I5094
sS'stays'
p538
I7921
sS'flexable'
p539
I5813
sS'cooks'
p540
I3512
sS'tricycle'
p541
I1183
sS'tear'
p542
I6277
sS'rights'
p543
I6055
sS'ollie'
p544
I2580
sS'minnie'
p545
I5883
sS'skewed'
p546
I7306
sS'leave'
p547
I3122
sS'crustacean'
p548
I5376
sS'subway'
p549
I538
sS'teal'
p550
I1418
sS'team'
p551
I267
sS'inscribed'
p552
I6009
sS'bonfire'
p553
I4251
sS'prevent'
p554
I3595
sS'spiritual'
p555
I7027
sS'meadow'
p556
I1483
sS'collage'
p557
I4080
sS'trails'
p558
I2508
sS'sign'
p559
I222
sS'crescent'
p560
I5201
sS'silohuetted'
p561
I8428
sS'soccor'
p562
I6831
sS'parachuting'
p563
I2344
sS'playpen'
p564
I1514
sS'headset'
p565
I2670
sS'coppery'
p566
I5226
sS'current'
p567
I2738
sS'lazily'
p568
I8266
sS'falling'
p569
I493
sS'ground'
p570
I169
sS'badge'
p571
I4051
sS'banister'
p572
I6451
sS'climbs'
p573
I250
sS'funeral'
p574
I5059
sS'plucking'
p575
I7728
sS'alone'
p576
I901
sS'along'
p577
I112
sS'arch'
p578
I2706
sS'passengers'
p579
I2138
sS'brilliant'
p580
I4564
sS'queue'
p581
I5895
sS'buss'
p582
I6598
sS'studies'
p583
I4339
sS'nowhere'
p584
I5688
sS'whiel'
p585
I4241
sS'petterned'
p586
I8235
sS'bloody'
p587
I4745
sS'fake'
p588
I1157
sS'traversing'
p589
I4186
sS'forefront'
p590
I3561
sS'bended'
p591
I6247
sS'sunbathing'
p592
I6252
sS'working'
p593
I1135
sS'may'
p594
I7983
sS'wicker'
p595
I2835
sS'angry'
p596
I4794
sS'tightly'
p597
I4986
sS'wicket'
p598
I4230
sS'topples'
p599
I4699
sS'films'
p600
I2926
sS'scope'
p601
I7846
sS'guardsman'
p602
I5740
sS'claus'
p603
I2202
sS'oregon'
p604
I3739
sS'everywhere'
p605
I1923
sS'scratches'
p606
I2822
sS'riders'
p607
I954
sS'mascot'
p608
I2577
sS'logos'
p609
I4332
sS'gregoire'
p610
I6618
sS'pretend'
p611
I2398
sS'interracial'
p612
I3559
sS'following'
p613
I1210
sS'admired'
p614
I6221
sS'nascar'
p615
I4331
sS'parachute'
p616
I928
sS'locks'
p617
I8264
sS'stoll'
p618
I7492
sS'hides'
p619
I2377
sS'allowed'
p620
I6701
sS'listens'
p621
I2208
sS'monitoring'
p622
I6893
sS'winter'
p623
I375
sS'coyotes'
p624
I6478
sS'divided'
p625
I4595
sS'poking'
p626
I2864
sS'sweashirt'
p627
I8207
sS'elephant'
p628
I1573
sS'sliiding'
p629
I7837
sS'snaps'
p630
I5164
sS'laundry'
p631
I3579
sS'explorer'
p632
I6642
sS'remax'
p633
I5871
sS'spot'
p634
I1679
sS'latte'
p635
I4129
sS'speedos'
p636
I4342
sS'headscarf'
p637
I1093
sS'pulley'
p638
I2781
sS'surfing'
p639
I430
sS'natural'
p640
I1384
sS'wheelchair'
p641
I999
sS'st'
p642
I2072
sS'darkened'
p643
I1860
sS'truck'
p644
I461
sS'snowed'
p645
I4181
sS'pulled'
p646
I832
sS'blowup'
p647
I5749
sS'vike'
p648
I5522
sS'archeologist'
p649
I5410
sS'kayaks'
p650
I1602
sS'flips'
p651
I1201
sS'kong'
p652
I5867
sS'course'
p653
I339
sS'bucking'
p654
I2237
sS'solitary'
p655
I3488
sS'limbs'
p656
I4531
sS'yawning'
p657
I2103
sS'thumb'
p658
I2402
sS'accordion'
p659
I1960
sS'torn'
p660
I3397
sS'attraction'
p661
I3459
sS'celebrate'
p662
I2607
sS'earnhardt'
p663
I6179
sS'suspension'
p664
I5207
sS'apron'
p665
I1277
sS'nation'
p666
I5613
sS'records'
p667
I3383
sS'drilling'
p668
I2655
sS'horseriders'
p669
I5809
sS'arriving'
p670
I5865
sS'twilight'
p671
I2917
sS'runners'
p672
I1442
sS'waterproofs'
p673
I5783
sS'fisherman'
p674
I1670
sS'bowling'
p675
I1385
sS'amnesty'
p676
I4942
sS'quarter'
p677
I3676
sS'turtle'
p678
I3307
sS'square'
p679
I1156
sS'retrieve'
p680
I1980
sS'bursting'
p681
I4695
sS'hoodoos'
p682
I8199
sS'sponsor'
p683
I7509
sS'entering'
p684
I3324
sS'beetle'
p685
I6222
sS'troll'
p686
I8325
sS'footbride'
p687
I6636
sS'canvas'
p688
I2437
sS'container'
p689
I1812
sS'rounding'
p690
I3231
sS'swordsman'
p691
I4766
sS'contained'
p692
I5180
sS'internet'
p693
I8142
sS'formula'
p694
I6415
sS'squares'
p695
I4007
sS'bordering'
p696
I6548
sS'seventh'
p697
I8238
sS'quite'
p698
I5789
sS'bumps'
p699
I4673
sS'mime'
p700
I3806
sS'colred'
p701
I5237
sS'intensely'
p702
I6546
sS'bumpy'
p703
I2641
sS'poems'
p704
I8293
sS'scarred'
p705
I6040
sS'training'
p706
I1121
sS'silhouetted'
p707
I1659
sS'backside'
p708
I5778
sS'collapsing'
p709
I6703
sS'retrieving'
p710
I1362
sS'punk'
p711
I2756
sS'disguises'
p712
I4835
sS'silhouettes'
p713
I7166
sS'punt'
p714
I6705
sS'massive'
p715
I2836
sS'batons'
p716
I5828
sS'reveals'
p717
I7253
sS'clause'
p718
I3951
sS'passageway'
p719
I6555
sS'one'
p720
I56
sS'rustric'
p721
I7582
sS'spokes'
p722
I7602
sS'spanish'
p723
I3555
sS'chubby'
p724
I2417
sS'potted'
p725
I2187
sS'paleontologist'
p726
I5409
sS'ripping'
p727
I4845
sS'city'
p728
I179
sS'bite'
p729
I936
sS'2'
I1152
sS'draft'
p730
I3426
sS'stuffed'
p731
I603
sS'shoppers'
p732
I3384
sS'structures'
p733
I2692
sS'williams'
p734
I7457
sS'floppy'
p735
I1826
sS'shawl'
p736
I2726
sS'surges'
p737
I6138
sS'padding'
p738
I7714
sS'herds'
p739
I3741
sS'photographic'
p740
I5853
sS'rival'
p741
I2387
sS'biohazard'
p742
I7467
sS'smirks'
p743
I4620
sS'trekking'
p744
I3455
sS'scuba'
p745
I1214
sS'addressing'
p746
I7735
sS'san'
p747
I4819
sS'greyhound'
p748
I485
sS's.c.u.b.a.'
p749
I5671
sS'alley'
p750
I1386
sS'sad'
p751
I2326
sS'say'
p752
I4004
sS'buried'
p753
I1535
sS'saw'
p754
I3086
sS'sat'
p755
I1799
sS'tobaggons'
p756
I6329
sS'baggage'
p757
I4708
sS'downwards'
p758
I4841
sS'aside'
p759
I6790
sS'zoo'
p760
I2735
sS'note'
p761
I3177
sS'maintain'
p762
I8307
sS'take'
p763
I492
sS'roadside'
p764
I3034
sS'wanting'
p765
I6119
sS'fashionably'
p766
I4927
sS'butterfly'
p767
I2356
sS'sprawls'
p768
I5251
sS'handing'
p769
I2229
sS'maneuvering'
p770
I8352
sS'opposite'
p771
I1014
sS'spewing'
p772
I6359
sS'buffet'
p773
I5333
sS'printed'
p774
I2171
sS'wintery'
p775
I4391
sS'knee'
p776
I1240
sS'winters'
p777
I5741
sS'lawn'
p778
I373
sS'average'
p779
I6620
sS'farmers'
p780
I4068
sS'sale'
p781
I2262
sS'vaste'
p782
I6836
sS'crooked'
p783
I4438
sS'backdrop'
p784
I1978
sS'axe'
p785
I4422
sS'salt'
p786
I4804
sS'accented'
p787
I5054
sS'walking'
p788
I60
sS'cherry'
p789
I4996
sS'beckham'
p790
I7676
sS'grilling'
p791
I3763
sS'bright'
p792
I360
sS'aggressive'
p793
I4596
sS'bracelet'
p794
I2499
sS'cloak'
p795
I4606
sS'tears'
p796
I4258
sS'going'
p797
I315
sS'hockey'
p798
I258
sS'robe'
p799
I1494
sS'bicyler'
p800
I7151
sS'carolina'
p801
I4921
sS'guarded'
p802
I4724
sS'daschunds'
p803
I8371
sS'windowed'
p804
I5298
sS'tilting'
p805
I6503
sS'balconies'
p806
I6191
sS'wheelie'
p807
I873
sS'rainling'
p808
I7311
sS'awaiting'
p809
I3793
sS'osme'
p810
I7502
sS'artist'
p811
I1580
sS'worried'
p812
I4721
sS'skyline'
p813
I1502
sS'priest'
p814
I2410
sS'snowsuit'
p815
I1335
sS'recoiling'
p816
I5603
sS'where'
p817
I815
sS'vision'
p818
I7268
sS'cin'
p819
I6107
sS'gnome'
p820
I6981
sS'horned'
p821
I7274
sS'dives'
p822
I1187
sS'diver'
p823
I1604
sS'wielding'
p824
I3331
sS'jumped'
p825
I929
sS'sites'
p826
I4329
sS'sponsorship'
p827
I5645
sS'dimlight'
p828
I7278
sS'navigates'
p829
I2606
sS'teens'
p830
I2266
sS'playhouse'
p831
I2436
sS'surfboards'
p832
I2695
sS'jumper'
p833
I1569
sS'checkered'
p834
I1656
sS'vertical'
p835
I1885
sS'screen'
p836
I1041
sS'dome'
p837
I3427
sS'supermarket'
p838
I6408
sS'punts'
p839
I5942
sS'awards'
p840
I3290
sS'jets'
p841
I6282
sS'mountaintops'
p842
I4888
sS'mans'
p843
I1894
sS'majestically'
p844
I8493
sS'many'
p845
I268
sS'flipped'
p846
I2529
sS's'
I4102
sS'concentrates'
p847
I4772
sS'mosaic'
p848
I7410
sS'mani'
p849
I5580
sS'waterbed'
p850
I5242
sS'expression'
p851
I2043
sS'fix'
p852
I4347
sS'extravagantly'
p853
I7404
sS'twin'
p854
I2284
sS'anti'
p855
I7527
sS'boas'
p856
I6889
sS'twig'
p857
I3967
sS'boat'
p858
I199
sS'caring'
p859
I7709
sS'better'
p860
I4197
sS'collides'
p861
I6428
sS'teddy'
p862
I2147
sS'stretch'
p863
I1794
sS'west'
p864
I4610
sS'vacation'
p865
I8316
sS'breath'
p866
I2876
sS'reflective'
p867
I1730
sS'wants'
p868
I6486
sS'thousand'
p869
I6499
sS'formed'
p870
I4825
sS'photos'
p871
I1883
sS'observe'
p872
I2915
sS'parasail'
p873
I2349
sS'wanders'
p874
I6714
sS'tatoos'
p875
I5086
sS'tribal'
p876
I4770
sS'zippered'
p877
I7063
sS'squeezes'
p878
I4547
sS'extravagent'
p879
I6777
sS'canoes'
p880
I1755
sS'collarless'
p881
I5825
sS'squeezed'
p882
I5331
sS'spotlight'
p883
I2647
sS'twisty'
p884
I8253
sS'metropolitain'
p885
I6183
sS'canoe'
p886
I542
sS'brow'
p887
I4715
sS'purse'
p888
I868
sS'speedway'
p889
I6358
sS'staffordshire'
p890
I4823
sS'fame'
p891
I4355
sS'cafe'
p892
I1355
sS'jumpinjg'
p893
I7236
sS'dreeds'
p894
I6404
sS'shute'
p895
I5294
sS'barbed'
p896
I3114
sS'wires'
p897
I2698
sS'edged'
p898
I5850
sS'oceanside'
p899
I7469
sS'retreived'
p900
I8182
sS'cheers'
p901
I2574
sS'bulletproof'
p902
I5512
sS'snowbank'
p903
I2069
sS'barber'
p904
I4012
sS'advertisement'
p905
I1509
sS'cheery'
p906
I8066
sS'retreiver'
p907
I3293
sS'mohawk'
p908
I721
sS'escorts'
p909
I5209
sS'fingerhold'
p910
I8308
sS'driftwood'
p911
I5722
sS'vacant'
p912
I3565
sS'trains'
p913
I2233
sS'summer'
p914
I1720
sS'sprayed'
p915
I1109
sS'being'
p916
I175
sS'rest'
p917
I1137
sS'slimy'
p918
I8247
sS'rover'
p919
I3857
sS'grounded'
p920
I4345
sS'mandolin'
p921
I7727
sS'snowshovel'
p922
I5743
sS'geological'
p923
I7412
sS'instrument'
p924
I1522
sS'haystack'
p925
I4367
sS'joyful'
p926
I7349
sS'skies'
p927
I1846
sS'skier'
p928
I275
sS'around'
p929
I98
sS'dart'
p930
I6944
sS'sumo'
p931
I1191
sS'traffic'
p932
I734
sS'bandage'
p933
I3827
sS'world'
p934
I2524
sS'snare'
p935
I8088
sS'meat'
p936
I4023
sS'tarp'
p937
I2130
sS'snowmobiler'
p938
I4099
sS'snowmobiles'
p939
I2989
sS'clad'
p940
I1614
sS'clay'
p941
I3134
sS'kennel'
p942
I3760
sS'clap'
p943
I3899
sS'auditorium'
p944
I3083
sS'seating'
p945
I2270
sS'picnickers'
p946
I6251
sS'fives'
p947
I3479
sS'lobster'
p948
I3503
sS'diving'
p949
I531
sS'divind'
p950
I7561
sS'thinks'
p951
I6399
sS'earflaps'
p952
I5899
sS'flamboyantly'
p953
I6310
sS'wristband'
p954
I6337
sS'tote'
p955
I4300
sS'strewn'
p956
I2178
sS'motorcrossing'
p957
I7909
sS'tube'
p958
I613
sS'dimpled'
p959
I6300
sS'exit'
p960
I4885
sS'litttle'
p961
I8086
sS'tussling'
p962
I3500
sS'arrow'
p963
I3150
sS'power'
p964
I1732
sS'went'
p965
I8327
sS'stone'
p966
I352
sS'ace'
p967
I5144
sS'package'
p968
I4303
sS'pelicans'
p969
I5096
sS'favorite'
p970
I3492
sS'slender'
p971
I4171
sS'meal'
p972
I1576
sS'pinestraw'
p973
I7394
sS'act'
p974
I2207
sS'gesturing'
p975
I3288
sS'stony'
p976
I3419
sS'curling'
p977
I4878
sS'burning'
p978
I1774
sS'image'
p979
I1216
sS'legged'
p980
I2217
sS'marlins'
p981
I5220
sS'prepares'
p982
I699
sS'homeless'
p983
I1013
sS'sprinkers'
p984
I7978
sS'wade'
p985
I1835
sS'telescope'
p986
I2250
sS'racquet'
p987
I1160
sS'laborador'
p988
I5477
sS'her'
p989
I59
sS'sloped'
p990
I4017
sS'lounging'
p991
I3174
sS'harpsichord'
p992
I7716
sS'worshippers'
p993
I6512
sS'garment'
p994
I4107
sS'pinwheel'
p995
I4593
sS'bubble'
p996
I875
sS'saris'
p997
I3325
sS'gurnee'
p998
I7468
sS'complete'
p999
I2632
sS'gliding'
p1000
I1686
sS'bohemians'
p1001
I7895
sS'foreheads'
p1002
I5969
sS'antiquated'
p1003
I5429
sS'blueish'
p1004
I6532
sS'with'
p1005
I9
sS'featuring'
p1006
I4628
sS'buying'
p1007
I4057
sS'pull'
p1008
I940
sS'rush'
p1009
I3904
sS'kiyaking'
p1010
I6704
sS'tambourines'
p1011
I4584
sS'darked'
p1012
I6067
sS'unsual'
p1013
I7226
sS'rags'
p1014
I5570
sS'dirty'
p1015
I752
sS'torso'
p1016
I3997
sS'trips'
p1017
I5458
sS'rust'
p1018
I7203
sS'darker'
p1019
I3771
sS'peaking'
p1020
I3021
sS'carves'
p1021
I3979
sS'ad'
p1022
I3006
sS'accents'
p1023
I5049
sS'am'
p1024
I5677
sS'watches'
p1025
I198
sS'an'
p1026
I27
sS'as'
p1027
I77
sS'at'
p1028
I21
sS'walks'
p1029
I110
sS'watched'
p1030
I1044
sS'waders'
p1031
I4155
sS'admiring'
p1032
I3214
sS'cream'
p1033
I760
sS'collie'
p1034
I982
sS'yoga'
p1035
I3374
sS'nutcracker'
p1036
I4320
sS'tight'
p1037
I1731
sS'beverage'
p1038
I1841
sS'someones'
p1039
I8384
sS'puppy'
p1040
I423
sS'motorcyclists'
p1041
I1699
sS'passerby'
p1042
I3863
sS'vocabulary'
p1043
I7195
sS'beaks'
p1044
I7210
sS'waving'
p1045
I682
sS'zchtv'
p1046
I7112
sS'midget'
p1047
I4598
sS'grownup'
p1048
I5882
sS'closeby'
p1049
I6420
sS'marsh'
p1050
I2067
sS'anticipates'
p1051
I8228
sS'tricks'
p1052
I419
sS'groom'
p1053
I1227
sS'mask'
p1054
I496
sS'clowning'
p1055
I8263
sS'dyed'
p1056
I2522
sS'having'
p1057
I729
sS'mast'
p1058
I5904
sS'motocross'
p1059
I704
sS'saroog'
p1060
I6454
sS'birdcage'
p1061
I4553
sS'ceramic'
p1062
I7718
sS'debris'
p1063
I4761
sS'obscuring'
p1064
I4348
sS'reson'
p1065
I6907
sS'colecting'
p1066
I7199
sS'tinsel'
p1067
I7378
sS'tv'
p1068
I1637
sS'tw'
p1069
I5734
sS'loooking'
p1070
I7778
sS'laughing'
p1071
I437
sS'to'
p1072
I19
sS'tail'
p1073
I1182
sS'chewing'
p1074
I744
sS'dressing'
p1075
I5122
sS'smile'
p1076
I408
sS'splashing'
p1077
I351
sS'roadway'
p1078
I2747
sS'paying'
p1079
I2945
sS'convienience'
p1080
I8421
sS'puzzled'
p1081
I4904
sS'social'
p1082
I6590
sS'floated'
p1083
I6063
sS'baton'
p1084
I3260
sS'strand'
p1085
I6870
sS'enjoyable'
p1086
I6608
sS'hooking'
p1087
I3859
sS'cable'
p1088
I2423
sS'accompanying'
p1089
I7916
sS'lawnmower'
p1090
I5154
sS'wmoan'
p1091
I6648
sS'laying'
p1092
I265
sS'joined'
p1093
I5262
sS'large'
p1094
I54
sS'dinosaur'
p1095
I4065
sS'sand'
p1096
I126
sS'adjust'
p1097
I4905
sS'small'
p1098
I52
sS'dodges'
p1099
I3703
sS'snowbound'
p1100
I5420
sS'lecturing'
p1101
I7446
sS'sync'
p1102
I7342
sS'past'
p1103
I317
sS'displays'
p1104
I2899
sS'pass'
p1105
I1128
sS'situated'
p1106
I6490
sS'crests'
p1107
I3871
sS'freesbies'
p1108
I5988
sS'crosswalks'
p1109
I7068
sS'handicapped'
p1110
I3613
sS'section'
p1111
I4283
sS'burgundy'
p1112
I3469
sS'revealing'
p1113
I3816
sS'full'
p1114
I571
sS'diapers'
p1115
I3199
sS'outcroping'
p1116
I6350
sS'shops'
p1117
I1936
sS'streambed'
p1118
I5296
sS'pick'
p1119
I1739
sS'action'
p1120
I1159
sS'pice'
p1121
I6373
sS'rummaging'
p1122
I4535
sS'brimmed'
p1123
I5152
sS'unner'
p1124
I7453
sS'via'
p1125
I6345
sS'followed'
p1126
I1393
sS'vie'
p1127
I4618
sS'strolling'
p1128
I8197
sS'indoors'
p1129
I924
sS'viz'
p1130
I2300
sS'pulls'
p1131
I891
sS'ghostbuster'
p1132
I7968
sS'perused'
p1133
I7865
sS'ridding'
p1134
I2782
sS'occassion'
p1135
I7471
sS'poodle'
p1136
I839
sS'pearl'
p1137
I5430
sS'pitching'
p1138
I1847
sS'6'
I1989
sS'stretchy'
p1139
I5413
sS'glowers'
p1140
I5517
sS'more'
p1141
I2729
sS'teen'
p1142
I1326
sS'door'
p1143
I614
sS'alcove'
p1144
I7017
sS'signpost'
p1145
I5564
sS'company'
p1146
I3152
sS'batsman'
p1147
I2869
sS'competes'
p1148
I7878
sS'coyote'
p1149
I5464
sS'riverbank'
p1150
I3091
sS'fleece'
p1151
I3180
sS'lilly'
p1152
I5673
sS'seaguls'
p1153
I6370
sS'science'
p1154
I7575
sS'mall'
p1155
I1674
sS'learn'
p1156
I4010
sS'knocked'
p1157
I4934
sS'seagull'
p1158
I2330
sS'male'
p1159
I381
sS'phillie'
p1160
I5605
sS'scramble'
p1161
I4762
sS'fleecy'
p1162
I7535
sS'siluettes'
p1163
I6855
sS'beautiful'
p1164
I672
sS'launching'
p1165
I6249
sS'gallop'
p1166
I7648
sS'campsite'
p1167
I2172
sS'fiving'
p1168
I5321
sS'states'
p1169
I3330
sS'biden'
p1170
I6613
sS'fiercely'
p1171
I7722
sS'beaver'
p1172
I7455
sS'schoolgirl'
p1173
I7108
sS'dress'
p1174
I171
sS'buries'
p1175
I8151
sS'takeout'
p1176
I5169
sS'speedboat'
p1177
I4134
sS'farward'
p1178
I7376
sS'glowing'
p1179
I4256
sS'disturbed'
p1180
I6819
sS'decortive'
p1181
I8464
sS'freshly'
p1182
I2720
sS'hugs'
p1183
I1142
sS'creature'
p1184
I2570
sS'plant'
p1185
I1455
sS'intended'
p1186
I6030
sS'countryside'
p1187
I1606
sS'notre'
p1188
I5924
sS'plane'
p1189
I1053
sS'waves'
p1190
I328
sS'backyard'
p1191
I565
sS'plank'
p1192
I2051
sS'refuse'
p1193
I4245
sS'organization'
p1194
I7766
sS'register'
p1195
I3257
sS'hauling'
p1196
I5203
sS'volleyball'
p1197
I623
sS'blays'
p1198
I7536
sS'helplessly'
p1199
I6866
sS'patio'
p1200
I1229
sS'pans'
p1201
I8156
sS'rottweiler'
p1202
I2518
sS'adorned'
p1203
I3662
sS'mexican'
p1204
I2933
sS'bowl'
p1205
I975
sS'trade'
p1206
I4073
sS'passin'
p1207
I7641
sS'paper'
p1208
I502
sS'questioningly'
p1209
I8164
sS'pane'
p1210
I5528
sS'signs'
p1211
I710
sS'broadway'
p1212
I4146
sS'smiling'
p1213
I128
sS'its'
p1214
I73
sS'roots'
p1215
I6339
sS'licks'
p1216
I1336
sS'rapidly'
p1217
I4292
sS'blurring'
p1218
I6652
sS'wipe'
p1219
I6972
sS'individuals'
p1220
I1692
sS'alls'
p1221
I6123
sS'weimaraners'
p1222
I8121
sS'travelling'
p1223
I3556
sS'ally'
p1224
I7270
sS'tentatively'
p1225
I8436
sS'skipped'
p1226
I8089
sS'aggitates'
p1227
I7749
sS'motley'
p1228
I7239
sS'sucker'
p1229
I7307
sS'snowball'
p1230
I1154
sS'frizzy'
p1231
I6321
sS'weeds'
p1232
I1723
sS'lettuce'
p1233
I6409
sS'coping'
p1234
I7868
sS'yellows'
p1235
I7035
sS'swimsuit'
p1236
I615
sS'found'
p1237
I4204
sS'lantern'
p1238
I6580
sS'penske'
p1239
I4040
sS'brunette'
p1240
I1415
sS'bends'
p1241
I1414
sS'jewlery'
p1242
I8270
sS'blues'
p1243
I3718
sS'really'
p1244
I2314
sS'takeing'
p1245
I6781
sS'silky'
p1246
I5823
sS'toppless'
p1247
I5846
sS'missed'
p1248
I3898
sS'enjoyment'
p1249
I6324
sS'misses'
p1250
I2868
sS'flyaway'
p1251
I6209
sS'fishers'
p1252
I8383
sS'highway'
p1253
I2035
sS'risen'
p1254
I5388
sS'drifting'
p1255
I4268
sS'porcelain'
p1256
I8380
sS'cockpit'
p1257
I4692
sS'outfitted'
p1258
I4930
sS'rises'
p1259
I3220
sS'director'
p1260
I8139
sS'pairs'
p1261
I2685
sS'reared'
p1262
I6755
sS'armful'
p1263
I5534
sS'apple'
p1264
I1700
sS'unmanned'
p1265
I4806
sS'castle'
p1266
I2362
sS'clump'
p1267
I4828
sS'corrugated'
p1268
I6118
sS'aligator'
p1269
I8062
sS'gazed'
p1270
I7474
sS'forwards'
p1271
I4580
sS'emblazoned'
p1272
I7437
sS'number'
p1273
I384
sS'slipper'
p1274
I3096
sS'gazes'
p1275
I2496
sS'florist'
p1276
I4714
sS'stage'
p1277
I591
sS'matchin'
p1278
I8363
sS'heads'
p1279
I713
sS'jet'
p1280
I1168
sS'threatening'
p1281
I4278
sS'ion'
p1282
I8334
sS'flings'
p1283
I3248
sS'litlle'
p1284
I5225
sS'floaties'
p1285
I1657
sS'warmly'
p1286
I1924
sS'tomatos'
p1287
I5965
sS'interviewed'
p1288
I3989
sS'rain'
p1289
I695
sS'stairs'
p1290
I394
sS'youngle'
p1291
I6003
sS'obama'
p1292
I1267
sS'walmart'
p1293
I5118
sS'defends'
p1294
I3363
sS'determined'
p1295
I3593
sS'padel'
p1296
I6466
sS'fishermen'
p1297
I4340
sS'taxis'
p1298
I8355
sS'containig'
p1299
I8487
sS'mossy'
p1300
I2583
sS'fights'
p1301
I3351
sS'fireside'
p1302
I6881
sS'pedestrian'
p1303
I2826
sS'graffiti'
p1304
I540
sS'blond'
p1305
I260
sS'sell'
p1306
I2566
sS'ballerina'
p1307
I6783
sS'stockcar'
p1308
I6391
sS'pajamas'
p1309
I1346
sS'doberman'
p1310
I1395
sS'also'
p1311
I1268
sS'play'
p1312
I86
sS'railgrind'
p1313
I8082
sS'blackboard'
p1314
I7196
sS'swiftly'
p1315
I7363
sS'dirtbike'
p1316
I8052
sS'plan'
p1317
I6719
sS'darts'
p1318
I7398
sS'accepting'
p1319
I7861
sS'colliding'
p1320
I3903
sS'foyer'
p1321
I6767
sS'lacross'
p1322
I7751
sS'cover'
p1323
I1320
sS'artistic'
p1324
I4370
sS'worshipping'
p1325
I6511
sS'barren'
p1326
I1428
sS'barrel'
p1327
I1195
sS'attacking'
p1328
I2307
sS'eyepatch'
p1329
I7699
sS'golf'
p1330
I1172
sS'cruiser'
p1331
I4194
sS'defended'
p1332
I6749
sS'session'
p1333
I4800
sS'woooden'
p1334
I8016
sS'defender'
p1335
I7353
sS'overwhelmed'
p1336
I7606
sS'impact'
p1337
I7893
sS'wraps'
p1338
I3674
sS'streetlights'
p1339
I7076
sS'writes'
p1340
I2374
sS'smokestacks'
p1341
I6189
sS'clothesline'
p1342
I5238
sS'poodles'
p1343
I1685
sS'twins'
p1344
I8344
sS'columns'
p1345
I2777
sS'giants'
p1346
I5135
sS'boarding'
p1347
I1527
sS'magicians'
p1348
I5424
sS'downpour'
p1349
I5614
sS'dandelion'
p1350
I2121
sS'beams'
p1351
I5085
sS'sunny'
p1352
I578
sS'preparing'
p1353
I865
sS'closely'
p1354
I2662
sS'waaves'
p1355
I8033
sS'banner'
p1356
I1303
sS'sleeve'
p1357
I2022
sS'gettnig'
p1358
I6335
sS'paddling'
p1359
I728
sS'tabby'
p1360
I3249
sS'seperated'
p1361
I6724
sS'bird'
p1362
I261
sS'caramel'
p1363
I5452
sS'samoyads'
p1364
I5830
sS'obscure'
p1365
I5553
sS'river'
p1366
I225
sS'approaching'
p1367
I1511
sS'bulky'
p1368
I5279
sS'set'
p1369
I393
sS'minerature'
p1370
I5658
sS'carrying'
p1371
I134
sS'see'
p1372
I1098
sS'sea'
p1373
I980
sS'sips'
p1374
I4222
sS'outward'
p1375
I8397
sS'knees'
p1376
I1608
sS'ritz'
p1377
I5143
sS'movie'
p1378
I2089
sS'currently'
p1379
I7688
sS'guides'
p1380
I4542
sS'pickup'
p1381
I2984
sS'lei'
p1382
I8032
sS'crosswalk'
p1383
I1253
sS'sundress'
p1384
I2853
sS'kneel'
p1385
I2761
sS'europe'
p1386
I5397
sS'sparsely'
p1387
I4589
sS'untouched'
p1388
I7162
sS'screeches'
p1389
I6071
sS'last'
p1390
I6487
sS'barely'
p1391
I3098
sS'objects'
p1392
I2949
sS'lanyard'
p1393
I7547
sS'load'
p1394
I4112
sS'bell'
p1395
I4253
sS'loan'
p1396
I4603
sS'community'
p1397
I2376
sS'agents'
p1398
I7915
sS'frosty'
p1399
I4854
sS'scottish'
p1400
I3232
sS'bluejeans'
p1401
I3315
sS'backsides'
p1402
I8212
sS'belt'
p1403
I2011
sS'tanktops'
p1404
I6828
sS'womand'
p1405
I7292
sS'devil'
p1406
I2760
sS'lizards'
p1407
I3521
sS'bloe'
p1408
I5219
sS'cheeked'
p1409
I5805
sS'hitting'
p1410
I850
sS'suburbs'
p1411
I7787
sS'extravagant'
p1412
I3817
sS'rosy'
p1413
I5193
sS'resting'
p1414
I762
sS'sleeved'
p1415
I1403
sS'raced'
p1416
I3883
sS'squirrel'
p1417
I2117
sS'fire'
p1418
I387
sS'wheeler'
p1419
I1230
sS'racer'
p1420
I705
sS'races'
p1421
I759
sS'sleeves'
p1422
I2354
sS'wheeled'
p1423
I1249
sS'packers'
p1424
I5511
sS'presses'
p1425
I3053
sS'handling'
p1426
I4727
sS'coveralls'
p1427
I6982
sS'caged'
p1428
I8350
sS'straight'
p1429
I1564
sS'admire'
p1430
I3392
sS'technical'
p1431
I4393
sS'vaulated'
p1432
I7990
sS'pressed'
p1433
I7234
sS'leaning'
p1434
I440
sS'kissing'
p1435
I643
sS'real'
p1436
I2757
sS'pound'
p1437
I7886
sS'ducky'
p1438
I8312
sS'backing'
p1439
I7213
sS'motors'
p1440
I7366
sS'ducks'
p1441
I997
sS'chase'
p1442
I820
sS'funny'
p1443
I837
sS'fetching'
p1444
I1068
sS'maids'
p1445
I7007
sS'elevated'
p1446
I3515
sS'shorter'
p1447
I4963
sS'pecking'
p1448
I7144
sS'wasteland'
p1449
I3726
sS'd.c.'
p1450
I4889
sS'flooded'
p1451
I3158
sS'teeter'
p1452
I4219
sS'cigar'
p1453
I3368
sS'alert'
p1454
I3124
sS'viewing'
p1455
I4972
sS'levels'
p1456
I5282
sS'leaps'
p1457
I246
sS'waists'
p1458
I4526
sS'stack'
p1459
I3274
sS'euro'
p1460
I5598
sS'canned'
p1461
I4985
sS'picks'
p1462
I1707
sS'person'
p1463
I43
sS'clasped'
p1464
I6880
sS'hotrod'
p1465
I7754
sS'using'
p1466
I596
sS'helmeted'
p1467
I1506
sS'retrive'
p1468
I6392
sS'sandal'
p1469
I3772
sS'signal'
p1470
I2697
sS'orbs'
p1471
I5483
sS'snowbanks'
p1472
I5752
sS'advertisements'
p1473
I3373
sS'signals'
p1474
I4249
sS'rangers'
p1475
I7272
sS'parents'
p1476
I1986
sS'location'
p1477
I2548
sS'crying'
p1478
I1557
sS'surprised'
p1479
I2249
sS'clutches'
p1480
I4471
sS'couple'
p1481
I215
sS'suffering'
p1482
I6960
sS'falcon'
p1483
I3968
sS'pouncing'
p1484
I3362
sS'sightseeing'
p1485
I4363
sS'marquee'
p1486
I4871
sS'communications'
p1487
I5917
sS'continue'
p1488
I4335
sS'stylish'
p1489
I6572
sS'sportman'
p1490
I8010
sS'spins'
p1491
I1508
sS'names'
p1492
I5963
sS'partying'
p1493
I4212
sS'spring'
p1494
I2796
sS'bounce'
p1495
I1427
sS'greeting'
p1496
I4228
sS'stoppie'
p1497
I6859
sS'bouncy'
p1498
I1817
sS'palm'
p1499
I1245
sS'pall'
p1500
I7946
sS'sight'
p1501
I3902
sS'curious'
p1502
I3297
sS'sprint'
p1503
I3854
sS'pale'
p1504
I1480
sS'novelty'
p1505
I3627
sS'tye'
p1506
I7294
sS'ornate'
p1507
I2889
sS'temple'
p1508
I3895
sS'be'
p1509
I518
sS'performed'
p1510
I7337
sS'oout'
p1511
I6039
sS'obscures'
p1512
I7450
sS'bi'
p1513
I4769
sS'standind'
p1514
I6382
sS'concealed'
p1515
I5346
sS'santa'
p1516
I810
sS'tidal'
p1517
I8148
sS'obscured'
p1518
I3312
sS'by'
p1519
I53
sS'wrinkley'
p1520
I6541
sS'anything'
p1521
I6134
sS'frisbie'
p1522
I8115
sS'wrinkled'
p1523
I3620
sS'bting'
p1524
I5745
sS'repair'
p1525
I5583
sS'garbage'
p1526
I2045
sS'into'
p1527
I63
sS'paraskier'
p1528
I7414
sS'inspects'
p1529
I3606
sS'backbend'
p1530
I5859
sS'joking'
p1531
I6913
sS'harnessed'
p1532
I2832
sS'eleven'
p1533
I4880
sS'sock'
p1534
I7569
sS'custom'
p1535
I7254
sS'harnesses'
p1536
I1875
sS'u.'
p1537
I4914
sS'bridesmaids'
p1538
I1856
sS'suit'
p1539
I214
sS'spar'
p1540
I3218
sS'athlete'
p1541
I1445
sS'opens'
p1542
I1618
sS'excavating'
p1543
I5406
sS'jacks'
p1544
I5771
sS'hawaiian'
p1545
I2231
sS'jewish'
p1546
I5710
sS'poster'
p1547
I1695
sS'atop'
p1548
I862
sS'pastor'
p1549
I6992
sS'link'
p1550
I1609
sS'line'
p1551
I313
sS'relaxes'
p1552
I1716
sS'bumpers'
p1553
I7773
sS'magnificant'
p1554
I7250
sS'uw'
p1555
I4464
sS'burrows'
p1556
I8152
sS'up'
p1557
I50
sS'us'
p1558
I3354
sS'un'
p1559
I5024
sS'mature'
p1560
I6290
sS'faded'
p1561
I3104
sS'hangong'
p1562
I8198
sS'aerial'
p1563
I1701
sS'labrador'
p1564
I2003
sS'raging'
p1565
I3581
sS'm'
I5910
sS'coasting'
p1566
I4293
sS'diverse'
p1567
I7736
sS'chat'
p1568
I3050
sS'surveying'
p1569
I6856
sS'takedown'
p1570
I7670
sS'stiffly'
p1571
I7405
sS'tuft'
p1572
I6311
sS'fixing'
p1573
I4027
sS'tobaggan'
p1574
I7066
sS'actors'
p1575
I7923
sS'swirl'
p1576
I7974
sS'sails'
p1577
I2565
sS'energetic'
p1578
I5184
sS'cobblestone'
p1579
I2015
sS'clibing'
p1580
I6367
sS'sides'
p1581
I1175
sS'lane'
p1582
I1662
sS'land'
p1583
I1037
sS'fighter'
p1584
I3550
sS'holey'
p1585
I6629
sS'expressionless'
p1586
I7362
sS'overtop'
p1587
I7864
sS'pedestrians'
p1588
I1749
sS'age'
p1589
I4131
sS'holes'
p1590
I7624
sS'walked'
p1591
I3190
sS'summit'
p1592
I2461
sS'walker'
p1593
I3409
sS'fresh'
p1594
I3121
sS'hello'
p1595
I2293
sS'amish'
p1596
I3914
sS'squats'
p1597
I2493
sS'melts'
p1598
I4425
sS'scratch'
p1599
I5593
sS'knotted'
p1600
I4225
sS'illustrated'
p1601
I5967
sS'windowsill'
p1602
I4594
sS'pedalling'
p1603
I7445
sS'concerned'
p1604
I2851
sS'young'
p1605
I25
sS'yound'
p1606
I7791
sS'outwards'
p1607
I4913
sS'indicating'
p1608
I6868
sS'boatload'
p1609
I6805
sS'garden'
p1610
I665
sS'panting'
p1611
I3519
sS'continues'
p1612
I7373
sS'djs'
p1613
I7565
sS'llama'
p1614
I4021
sS'mixing'
p1615
I3169
sS'animals'
p1616
I793
sS'recorder'
p1617
I4033
sS'tri'
p1618
I1574
sS'shetland'
p1619
I5210
sS'magic'
p1620
I5423
sS'harbor'
p1621
I2483
sS'gettin'
p1622
I4953
sS'try'
p1623
I852
sS'race'
p1624
I157
sS'disheveled'
p1625
I4574
sS'rack'
p1626
I2244
sS'weilding'
p1627
I6980
sS'overshadows'
p1628
I8133
sS'mishap'
p1629
I7642
sS'video'
p1630
I814
sS'enclosed'
p1631
I1671
sS'playgym'
p1632
I5720
sS'odd'
p1633
I3153
sS'excersizing'
p1634
I6326
sS'index'
p1635
I6850
sS'sweats'
p1636
I4395
sS'apparatus'
p1637
I3941
sS'flannel'
p1638
I1899
sS'shivers'
p1639
I6319
sS'indian'
p1640
I1129
sS'turnaround'
p1641
I6234
sS'flowing'
p1642
I2737
sS'lolly'
p1643
I3716
sS'waling'
p1644
I5768
sS'scenery'
p1645
I2062
sS'led'
p1646
I3106
sS'rollerskate'
p1647
I5642
sS'leg'
p1648
I637
sS'respectively'
p1649
I7091
sS'gathered'
p1650
I561
sS'crosslegged'
p1651
I8187
sS'punch'
p1652
I3947
sS'delivering'
p1653
I8205
sS'let'
p1654
I8250
sS'aerodynamic'
p1655
I4103
sS'wrestilng'
p1656
I6817
sS'napping'
p1657
I7187
sS'great'
p1658
I1892
sS'engage'
p1659
I3201
sS'receive'
p1660
I4475
sS'involved'
p1661
I4703
sS'casino'
p1662
I3033
sS'dimond'
p1663
I6794
sS'headline'
p1664
I8331
sS'derby'
p1665
I2817
sS'opinion'
p1666
I6150
sS'makes'
p1667
I420
sS'maker'
p1668
I7246
sS'involves'
p1669
I6688
sS'atheletes'
p1670
I7610
sS'untangles'
p1671
I6566
sS'boxy'
p1672
I5400
sS'gaurd'
p1673
I8450
sS'nibbling'
p1674
I3877
sS'tools'
p1675
I2498
sS'standing'
p1676
I37
sS'cheered'
p1677
I3943
sS'zip'
p1678
I1891
sS'cougar'
p1679
I7074
sS'whipping'
p1680
I4607
sS'theme'
p1681
I3128
sS'milkweed'
p1682
I7684
sS'next'
p1683
I85
sS'zig'
p1684
I5060
sS'capri'
p1685
I5142
sS'dragsters'
p1686
I4043
sS'moutainside'
p1687
I6164
sS'pencil'
p1688
I4418
sS'headscarves'
p1689
I6952
sS'on'
p1690
I5
sS'rode'
p1691
I6180
sS'opposing'
p1692
I789
sS'bullhorn'
p1693
I4791
sS'labelled'
p1694
I6172
sS'baby'
p1695
I141
sS'shoelaces'
p1696
I8059
sS'promotional'
p1697
I6635
sS'customer'
p1698
I3607
sS'balls'
p1699
I584
sS'practicing'
p1700
I1094
sS'this'
p1701
I329
sS'challenge'
p1702
I4496
sS'when'
p1703
I2919
sS'pour'
p1704
I4722
sS'thin'
p1705
I1354
sS'drill'
p1706
I4044
sS'nears'
p1707
I3063
sS'gutarist'
p1708
I7725
sS'coffin'
p1709
I7945
sS'thie'
p1710
I5354
sS'streamer'
p1711
I4503
sS'bent'
p1712
I1896
sS'reeds'
p1713
I3198
sS'process'
p1714
I4435
sS'lock'
p1715
I5098
sS'billboards'
p1716
I3930
sS'trumped'
p1717
I5211
sS'pieces'
p1718
I2375
sS'high'
p1719
I191
sS'rollerskater'
p1720
I3965
sS'rollerskates'
p1721
I3155
sS'slip'
p1722
I1675
sS'rods'
p1723
I4071
sS'paws'
p1724
I979
sS'trumpet'
p1725
I2140
sS'docking'
p1726
I5993
sS'tourquoise'
p1727
I6442
sS'lunchbox'
p1728
I4971
sS'tightrope'
p1729
I1955
sS'animal'
p1730
I426
sS'establishment'
p1731
I3633
sS'contraption'
p1732
I3624
sS'yellowish'
p1733
I5278
sS'blocks'
p1734
I1104
sS'halter'
p1735
I2462
sS'await'
p1736
I4961
sS'wristwatch'
p1737
I4625
sS'tied'
p1738
I1501
sS'paintball'
p1739
I2619
sS'notebook'
p1740
I4423
sS'demonstrating'
p1741
I3305
sS'seaworld'
p1742
I6666
sS'tier'
p1743
I8067
sS'ties'
p1744
I2810
sS'hawk'
p1745
I2942
sS'squated'
p1746
I5676
sS'varied'
p1747
I5083
sS'ypoung'
p1748
I8440
sS'counter'
p1749
I951
sS'robot'
p1750
I2014
sS'element'
p1751
I6651
sS'allow'
p1752
I5504
sS'antelope'
p1753
I5456
sS'boxing'
p1754
I1131
sS'produces'
p1755
I8049
sS'tongee'
p1756
I7387
sS'move'
p1757
I1259
sS'motorcycle'
p1758
I212
sS'diferent'
p1759
I5736
sS'perfect'
p1760
I5441
sS'forearms'
p1761
I8281
sS'mistletoe'
p1762
I5584
sS'degrees'
p1763
I6774
sS'hobby'
p1764
I5662
sS'designs'
p1765
I4454
sS'outlined'
p1766
I7803
sS'promting'
p1767
I6917
sS'dock'
p1768
I446
sS'snake'
p1769
I1840
sS'kiss'
p1770
I1036
sS'traverses'
p1771
I2937
sS'cage'
p1772
I1584
sS'transparent'
p1773
I4184
sS'presidential'
p1774
I4733
sS'wrangles'
p1775
I7483
sS'wharfs'
p1776
I6348
sS'scenic'
p1777
I1601
sS'accompanies'
p1778
I8145
sS'sniffing'
p1779
I952
sS'prarie'
p1780
I6477
sS'accompanied'
p1781
I3925
sS'beneath'
p1782
I1407
sS'stock'
p1783
I6072
sS'glasses'
p1784
I244
sS'mets'
p1785
I3399
sS'tents'
p1786
I1046
sS'doing'
p1787
I135
sS'bums'
p1788
I6023
sS'books'
p1789
I2100
sS'jagged'
p1790
I2274
sS'goalkeeper'
p1791
I3971
sS"'"
I1100
sS'rigging'
p1792
I5903
sS'frowns'
p1793
I8358
sS'burka'
p1794
I7194
sS'scampers'
p1795
I6656
sS"'n'"
p1796
I4537
sS'yawns'
p1797
I3764
sS'graze'
p1798
I4104
sS'catc'
p1799
I5972
sS'thrust'
p1800
I8309
sS'steering'
p1801
I2246
sS'scary'
p1802
I2759
sS'backless'
p1803
I4755
sS'spill'
p1804
I6674
sS'david'
p1805
I5046
sS'chilly'
p1806
I6822
sS'length'
p1807
I3542
sS'pigs'
p1808
I5704
sS'pudding'
p1809
I4385
sS'jumphouse'
p1810
I5182
sS'motorbiker'
p1811
I4951
sS'motorbikes'
p1812
I2276
sS'cannonball'
p1813
I4263
sS'blown'
p1814
I3767
sS'minding'
p1815
I6948
sS'yells'
p1816
I4436
sS'scene'
p1817
I737
sS'jesus'
p1818
I2609
sS'straining'
p1819
I3537
sS'spaghetti'
p1820
I3610
sS'owner'
p1821
I947
sS'blows'
p1822
I802
sS'scent'
p1823
I8200
sS'potrait'
p1824
I5465
sS'festival'
p1825
I1538
sS'traveller'
p1826
I5596
sS'system'
p1827
I4627
sS'racks'
p1828
I7867
sS'rackets'
p1829
I8279
sS'decorations'
p1830
I3977
sS'graffitied'
p1831
I1750
sS'enforcement'
p1832
I4559
sS'stomach'
p1833
I1331
sS'stars'
p1834
I1629
sS'quarry'
p1835
I6578
sS'shorts'
p1836
I160
sS'unoccupied'
p1837
I6206
sS'ivars'
p1838
I5527
sS'labradoodle'
p1839
I4011
sS'steel'
p1840
I2982
sS'floatation'
p1841
I3075
sS'unamused'
p1842
I6008
sS'trike'
p1843
I4246
sS'mittened'
p1844
I5666
sS'haystacks'
p1845
I6569
sS'rollercoaster'
p1846
I4631
sS'punctured'
p1847
I4990
sS'steep'
p1848
I607
sS'twos'
p1849
I6435
sS'steer'
p1850
I3296
sS'collecting'
p1851
I4289
sS'false'
p1852
I4608
sS'fawkes'
p1853
I5971
sS'viewer'
p1854
I2924
sS'gentle'
p1855
I5163
sS'defending'
p1856
I2576
sS'jug'
p1857
I3115
sS'mountainous'
p1858
I1992
sS'mills'
p1859
I4808
sS'turquiose'
p1860
I5597
sS'cornstalks'
p1861
I6090
sS'demolished'
p1862
I4765
sS'astride'
p1863
I3308
sS'korean'
p1864
I5229
sS'soap'
p1865
I3131
sS'soar'
p1866
I7636
sS'warily'
p1867
I5792
sS'petals'
p1868
I5068
sS'device'
p1869
I1357
sS'medal'
p1870
I4366
sS'socializing'
p1871
I3209
sS'face'
p1872
I121
sS'mechanical'
p1873
I3211
sS'wounded'
p1874
I7385
sS'painting'
p1875
I771
sS'scrap'
p1876
I7211
sS'atmosphere'
p1877
I6686
sS'hoodies'
p1878
I4209
sS'grss'
p1879
I6316
sS'rings'
p1880
I1752
sS'woolly'
p1881
I5177
sS'bring'
p1882
I7870
sS'biker'
p1883
I283
sS'bikes'
p1884
I473
sS'greenhouse'
p1885
I2649
sS'bedroom'
p1886
I2668
sS'rough'
p1887
I735
sS'smacks'
p1888
I5445
sS'taps'
p1889
I5724
sS'pause'
p1890
I5398
sS'planter'
p1891
I8129
sS'hops'
p1892
I2693
sS'jaw'
p1893
I5592
sS'jar'
p1894
I2310
sS'terminal'
p1895
I4644
sS'tape'
p1896
I2232
sS'riding'
p1897
I75
sS'gnaws'
p1898
I4929
sS'handle'
p1899
I1815
sS'lucky'
p1900
I4579
sS'autos'
p1901
I6224
sS'fronds'
p1902
I6906
sS'exchanges'
p1903
I7267
sS'styrofoam'
p1904
I6394
sS'hoses'
p1905
I5601
sS'h'
I7406
sS'stuff'
p1906
I2479
sS'hosed'
p1907
I4597
sS'ohio'
p1908
I5259
sS'speedskater'
p1909
I6862
sS'raceway'
p1910
I3337
sS'handstand'
p1911
I731
sS'directs'
p1912
I3295
sS'intervening'
p1913
I7633
sS'guessing'
p1914
I7350
sS'packer'
p1915
I5510
sS'frame'
p1916
I1034
sS'horns'
p1917
I2177
sS'slanted'
p1918
I5352
sS'skateboarding'
p1919
I366
sS'packed'
p1920
I2368
sS'wire'
p1921
I836
sS'superhero'
p1922
I7738
sS'interacting'
p1923
I2058
sS'helments'
p1924
I5617
sS'pistol'
p1925
I3499
sS'ends'
p1926
I1913
sS'explosive'
p1927
I6852
sS'astroturf'
p1928
I4287
sS'fancily'
p1929
I6798
sS'butts'
p1930
I6006
sS'courtyard'
p1931
I1022
sS'strides'
p1932
I6484
sS'tented'
p1933
I5057
sS'staring'
p1934
I639
sS'tantrum'
p1935
I4855
sS'drum'
p1936
I1076
sS'handstands'
p1937
I8099
sS'ramp'
p1938
I180
sS'drug'
p1939
I4147
sS'doorway'
p1940
I971
sS'figures'
p1941
I3385
sS'puff'
p1942
I4939
sS'popscicles'
p1943
I7938
sS'pounces'
p1944
I2133
sS'impersonator'
p1945
I5951
sS'ca'
p1946
I7111
sS'snowfall'
p1947
I8177
sS'javelin'
p1948
I7989
sS'crafted'
p1949
I7300
sS'whispering'
p1950
I3355
sS'pugs'
p1951
I2955
sS'powered'
p1952
I4349
sS'gondola'
p1953
I2644
sS'genetic'
p1954
I4612
sS'poured'
p1955
I4723
sS'windsurfs'
p1956
I2844
sS'chalkboard'
p1957
I4005
sS"'slide"
p1958
I5395
sS'feather'
p1959
I1711
sS'negotiates'
p1960
I7403
sS'horsemen'
p1961
I6597
sS'swarmed'
p1962
I5606
sS'mannequin'
p1963
I5320
sS'tychy'
p1964
I6823
sS'spain'
p1965
I7427
sS'runway'
p1966
I2815
sS'grinning'
p1967
I3030
sS'bathtub'
p1968
I1537
sS'smiff'
p1969
I6166
sS'lush'
p1970
I2125
sS'site'
p1971
I2406
sS'adventures'
p1972
I8168
sS'rips'
p1973
I7231
sS'spectating'
p1974
I8019
sS'vw'
p1975
I3524
sS'uggs'
p1976
I4167
sS'sits'
p1977
I105
sS'headfirst'
p1978
I1430
sS'moves'
p1979
I1206
sS'glares'
p1980
I5323
sS'ball'
p1981
I38
sS'emotionally'
p1982
I7334
sS'dusk'
p1983
I1115
sS'bale'
p1984
I2361
sS'drink'
p1985
I401
sS'upon'
p1986
I2733
sS'underhang'
p1987
I6754
sS'surfboarding'
p1988
I4273
sS'brickwall'
p1989
I8415
sS'dust'
p1990
I1250
sS'overalls'
p1991
I1134
sS'afghan'
p1992
I3824
sS'fielder'
p1993
I6298
sS'off'
p1994
I82
sS'trudge'
p1995
I8047
sS'overcast'
p1996
I4159
sS'patterns'
p1997
I8495
sS'drawing'
p1998
I1639
sS'mastif'
p1999
I8443
sS'bananas'
p2000
I3401
sS'less'
p2001
I7723
sS'footbridge'
p2002
I4210
sS'hauled'
p2003
I6716
sS'lesh'
p2004
I5690
sS'web'
p2005
I3849
sS'wed'
p2006
I4876
sS'residential'
p2007
I2236
sS'outlines'
p2008
I5548
sS'clipped'
p2009
I4207
sS'crack'
p2010
I3621
sS'government'
p2011
I5824
sS'checking'
p2012
I1893
sS'fairies'
p2013
I4752
sS'frayed'
p2014
I7051
sS'five'
p2015
I299
sS'desk'
p2016
I1380
sS'meditational'
p2017
I5364
sS'loader'
p2018
I6509
sS'pier'
p2019
I918
sS'sleds'
p2020
I2071
sS'dove'
p2021
I3644
sS'garage'
p2022
I1925
sS'childing'
p2023
I5714
sS'become'
p2024
I6431
sS'paragliding'
p2025
I7415
sS'footage'
p2026
I7113
sS'daylight'
p2027
I5787
sS'gymnastics'
p2028
I2341
sS'springs'
p2029
I3531
sS'hissing'
p2030
I4125
sS'tasting'
p2031
I6177
sS'transport'
p2032
I5498
sS'hallways'
p2033
I6757
sS'avoid'
p2034
I2847
sS'kiddy'
p2035
I8103
sS'fedex'
p2036
I5133
sS'granite'
p2037
I7600
sS'does'
p2038
I227
sS'blurry'
p2039
I1063
sS'stairway'
p2040
I1540
sS'blowing'
p2041
I611
sS'pomeranian'
p2042
I5900
sS'pressure'
p2043
I6293
sS'fluorecent'
p2044
I8137
sS'zips'
p2045
I5801
sS'hiding'
p2046
I1651
sS'sister'
p2047
I2098
sS'drumming'
p2048
I8154
sS'playtoy'
p2049
I6041
sS'thck'
p2050
I8243
sS'union'
p2051
I2460
sS'furred'
p2052
I6105
sS'seeds'
p2053
I2449
sS'weirmeiner'
p2054
I5542
sS'swimming'
p2055
I131
sS'cadet'
p2056
I7100
sS'letters'
p2057
I2397
sS'flailing'
p2058
I4028
sS'snuggling'
p2059
I5043
sS'roads'
p2060
I6534
sS'swimmers'
p2061
I1645
sS'cradling'
p2062
I8267
sS'housing'
p2063
I3732
sS'spots'
p2064
I1000
sS'frolicks'
p2065
I4081
sS'bump'
p2066
I4676
sS'much'
p2067
I2512
sS'naturally'
p2068
I6848
sS'sponges'
p2069
I6096
sS'delivery'
p2070
I5991
sS'construction'
p2071
I958
sS'grate'
p2072
I5533
sS'leashed'
p2073
I1800
sS'tossed'
p2074
I2056
sS'places'
p2075
I3130
sS'chained'
p2076
I3206
sS'official'
p2077
I1937
sS'chaperone'
p2078
I5283
sS'excitement'
p2079
I4711
sS'harvested'
p2080
I4101
sS'tosses'
p2081
I1664
sS'leashes'
p2082
I1332
sS'monument'
p2083
I1468
sS'bearing'
p2084
I1842
sS'irish'
p2085
I2711
sS'nurses'
p2086
I3184
sS'rubble'
p2087
I3935
sS'sibling'
p2088
I5791
sS'ink'
p2089
I3468
sS'agains'
p2090
I7265
sS'ing'
p2091
I4428
sS'stamds'
p2092
I6594
sS'nursed'
p2093
I5926
sS'planting'
p2094
I7171
sS'variety'
p2095
I7156
sS'trials'
p2096
I4999
sS'forests'
p2097
I4786
sS'ponytail'
p2098
I1617
sS'iove'
p2099
I7832
sS'frisbee'
p2100
I176
sS'footprints'
p2101
I2881
sS'casque'
p2102
I7180
sS'directory'
p2103
I5416
sS'veil'
p2104
I3170
sS'dolphins'
p2105
I2556
sS'ghost'
p2106
I7966
sS'batting'
p2107
I2279
sS'rottwieler'
p2108
I5379
sS'joust'
p2109
I6596
sS'write'
p2110
I7521
sS'compete'
p2111
I1391
sS'rural'
p2112
I750
sS'buoy'
p2113
I4862
sS'frolics'
p2114
I2048
sS'saver'
p2115
I5269
sS'swirls'
p2116
I7308
sS'coopers'
p2117
I7020
sS'nursery'
p2118
I5080
sS'mansion'
p2119
I8395
sS'worked'
p2120
I7107
sS'waring'
p2121
I3544
sS'bike'
p2122
I78
sS'defecating'
p2123
I6314
sS'oriental'
p2124
I1678
sS'regalia'
p2125
I4987
sS'whack'
p2126
I4271
sS'litle'
p2127
I7513
sS'medow'
p2128
I6228
sS'blanket'
p2129
I562
sS'closeup'
p2130
I568
sS'tickets'
p2131
I3637
sS'exibit'
p2132
I7434
sS'handout'
p2133
I7409
sS'floored'
p2134
I3061
sS'cornfield'
p2135
I5189
sS'urinating'
p2136
I4690
sS'suite'
p2137
I6725
sS'whist'
p2138
I1920
sS'chew'
p2139
I1453
sS'paperback'
p2140
I3929
sS'phones'
p2141
I3638
sS'bubbling'
p2142
I5249
sS'horn'
p2143
I3836
sS'chef'
p2144
I3237
sS'placemats'
p2145
I6827
sS'panda'
p2146
I5742
sS'machines'
p2147
I2282
sS'established'
p2148
I8329
sS'religious'
p2149
I1959
sS'above'
p2150
I228
sS'toll'
p2151
I8135
sS'counters'
p2152
I6650
sS'simultaneously'
p2153
I5272
sS'sinks'
p2154
I4324
sS'festive'
p2155
I2422
sS'wrapping'
p2156
I2721
sS'protection'
p2157
I2682
sS'celebration'
p2158
I4130
sS'hairdo'
p2159
I5270
sS'watermelons'
p2160
I2550
sS'daughter'
p2161
I1462
sS'items'
p2162
I1719
sS'employees'
p2163
I4698
sS'smoke'
p2164
I787
sS'browsing'
p2165
I6244
sS'riverboat'
p2166
I6559
sS'whitewater'
p2167
I3055
sS'angrily'
p2168
I6959
sS'bro'
p2169
I7530
sS'romantically'
p2170
I7014
sS'atrium'
p2171
I5215
sS'total'
p2172
I7279
sS'fton'
p2173
I6085
sS'bra'
p2174
I3891
sS'plow'
p2175
I4787
sS'palestinian'
p2176
I6751
sS'alligator'
p2177
I3356
sS'sweater'
p2178
I369
sS'indians'
p2179
I5074
sS'bundles'
p2180
I5784
sS'knoll'
p2181
I6626
sS'bundled'
p2182
I1687
sS'riverwater'
p2183
I7721
sS'separated'
p2184
I6551
sS'award'
p2185
I2898
sS'pierced'
p2186
I2438
sS'yard'
p2187
I253
sS'blocking'
p2188
I1801
sS'stickball'
p2189
I7316
sS'handkerchiefs'
p2190
I6769
sS'springer'
p2191
I8185
sS'bunnies'
p2192
I6536
sS'word'
p2193
I6720
sS'presentation'
p2194
I2516
sS'work'
p2195
I1375
sS'worm'
p2196
I7734
sS'worn'
p2197
I2666
sS'cuddle'
p2198
I8401
sS'blooming'
p2199
I6813
sS'elbow'
p2200
I4660
sS'clinging'
p2201
I2664
sS'flung'
p2202
I3774
sS'india'
p2203
I3927
sS'motocycle'
p2204
I7140
sS'rapels'
p2205
I6698
sS'acrobatic'
p2206
I2766
sS'egyptian'
p2207
I5626
sS'goggled'
p2208
I6122
sS'boats'
p2209
I805
sS'beach'
p2210
I65
sS'pizza'
p2211
I1858
sS'bares'
p2212
I3179
sS'ladder'
p2213
I945
sS'after'
p2214
I270
sS'damaged'
p2215
I3583
sS'lab'
p2216
I1136
sS'bared'
p2217
I3074
sS'lay'
p2218
I1140
sS'lav'
p2219
I5204
sS'law'
p2220
I3769
sS'lap'
p2221
I795
sS'headdress'
p2222
I1805
sS'las'
p2223
I4169
sS'greet'
p2224
I3080
sS'scare'
p2225
I6662
sS'green'
p2226
I55
sS'scarf'
p2227
I468
sS'ambulance'
p2228
I1966
sS'order'
p2229
I2281
sS'salon'
p2230
I3382
sS'popsicle'
p2231
I3263
sS'office'
p2232
I1708
sS'wiffle'
p2233
I7762
sS'defenders'
p2234
I2846
sS'nets'
p2235
I3623
sS'bubbles'
p2236
I459
sS'hudge'
p2237
I6776
sS'recreational'
p2238
I4180
sS'mushing'
p2239
I4136
sS'production'
p2240
I7110
sS'vents'
p2241
I6218
sS'carton'
p2242
I4055
sS'versus'
p2243
I4668
sS'then'
p2244
I6744
sS'coffee'
p2245
I1031
sS'safe'
p2246
I7960
sS'collide'
p2247
I2614
sS'break'
p2248
I931
sS'band'
p2249
I570
sS'bang'
p2250
I5921
sS'reaches'
p2251
I854
sS'they'
p2252
I364
sS'fear'
p2253
I8100
sS'ther'
p2254
I5891
sS'bank'
p2255
I866
sS'bread'
p2256
I1820
sS'garmet'
p2257
I5547
sS'rocky'
p2258
I221
sS'spigot'
p2259
I3110
sS'ascends'
p2260
I3036
sS'backgrounds'
p2261
I7281
sS'automobile'
p2262
I6377
sS'rocks'
p2263
I208
sS'embankment'
p2264
I3132
sS'hurdle'
p2265
I484
sS'feeds'
p2266
I2517
sS'crocs'
p2267
I3461
sS'lifted'
p2268
I1944
sS'kneels'
p2269
I1078
sS'logs'
p2270
I1596
sS'dumping'
p2271
I4645
sS'braiding'
p2272
I8447
sS'sled'
p2273
I371
sS'logo'
p2274
I1873
sS'flock'
p2275
I1381
sS'motorized'
p2276
I2459
sS'waterspout'
p2277
I6418
sS'thorugh'
p2278
I3885
sS'sprints'
p2279
I1911
sS'burlap'
p2280
I3591
sS'cameras'
p2281
I1689
sS'hooked'
p2282
I5319
sS'fellows'
p2283
I7522
sS'hooker'
p2284
I4513
sS'forth'
p2285
I8326
sS'sliding'
p2286
I362
sS'barrier'
p2287
I1018
sS'standard'
p2288
I3378
sS'smacking'
p2289
I8262
sS'amazement'
p2290
I7653
sS'mullet'
p2291
I6381
sS'lollipop'
p2292
I3272
sS'shrubbery'
p2293
I3440
sS'baseman'
p2294
I2256
sS'created'
p2295
I3682
sS'creates'
p2296
I4691
sS'licked'
p2297
I3980
sS'oppose'
p2298
I3995
sS'chased'
p2299
I1311
sS'poofy'
p2300
I6157
sS'another'
p2301
I69
sS'thick'
p2302
I2288
sS'electronic'
p2303
I1876
sS'doge'
p2304
I7499
sS'swatting'
p2305
I8486
sS'elevator'
p2306
I2267
sS'rates'
p2307
I7954
sS'fumble'
p2308
I5936
sS'john'
p2309
I4581
sS'dogs'
p2310
I30
sS'totter'
p2311
I4220
sS'happily'
p2312
I1080
sS'albert'
p2313
I5013
sS'cereal'
p2314
I6232
sS'rippled'
p2315
I7965
sS'target'
p2316
I1928
sS'hike'
p2317
I1218
sS'seated'
p2318
I706
sS'tackler'
p2319
I3707
sS'iron'
p2320
I3731
sS'seater'
p2321
I5691
sS'tackled'
p2322
I1164
sS'hacking'
p2323
I5842
sS'tipping'
p2324
I6747
sS'navigate'
p2325
I4150
sS'manner'
p2326
I4279
sS'salvar'
p2327
I4896
sS'spashes'
p2328
I5873
sS'contents'
p2329
I3298
sS'nitro'
p2330
I6829
sS'strength'
p2331
I6248
sS'indescript'
p2332
I4973
sS'latter'
p2333
I5261
sS'swims'
p2334
I412
sS'snowflake'
p2335
I8054
sS'circles'
p2336
I6765
sS'bigwheels'
p2337
I6128
sS'exercised'
p2338
I7347
sS'anatomy'
p2339
I5651
sS'extending'
p2340
I8343
sS'involving'
p2341
I3105
sS'circled'
p2342
I7711
sS'exercises'
p2343
I3072
sS'streches'
p2344
I7053
sS'hanna'
p2345
I8003
sS'shook'
p2346
I8251
sS'streched'
p2347
I6625
sS'mitten'
p2348
I4785
sS'brief'
p2349
I7816
sS'chandelier'
p2350
I4809
sS'firehose'
p2351
I4156
sS'fisheye'
p2352
I7914
sS'toast'
p2353
I3954
sS'geyser'
p2354
I2966
sS'completes'
p2355
I3856
sS'screening'
p2356
I6983
sS'pursuing'
p2357
I4666
sS'goalie'
p2358
I774
sS'rectangle'
p2359
I7119
sS'do'
p2360
I708
sS'dj'
p2361
I2645
sS'railings'
p2362
I1769
sS'dc'
p2363
I7023
sS'frowning'
p2364
I3138
sS'unicycle'
p2365
I853
sS'riwal'
p2366
I6623
sS'roundabout'
p2367
I8160
sS'du'
p2368
I7179
sS'headlong'
p2369
I4739
sS'steap'
p2370
I7375
sS'runs'
p2371
I72
sS'cappedhills'
p2372
I5788
sS'covering'
p2373
I910
sS'dupont'
p2374
I8002
sS'rung'
p2375
I7659
sS'crucifixion'
p2376
I7942
sS'steal'
p2377
I5004
sS'steam'
p2378
I3215
sS'observer'
p2379
I5976
sS'observes'
p2380
I1836
sS'lemonade'
p2381
I3484
sS'observed'
p2382
I2871
sS'cattle'
p2383
I4544
sS'93'
p2384
I7056
sS'pastel'
p2385
I7417
sS'draws'
p2386
I4882
sS'away'
p2387
I287
sS'gentleman'
p2388
I1528
sS'swimwear'
p2389
I4712
sS'overgrown'
p2390
I3474
sS'bracing'
p2391
I6211
sS'props'
p2392
I3230
sS'drawn'
p2393
I2997
sS'encounters'
p2394
I7950
sS'shields'
p2395
I6292
sS'we'
p2396
I3052
sS'packaged'
p2397
I5490
sS'packages'
p2398
I3957
sS'kitchen'
p2399
I757
sS'bras'
p2400
I8453
sS'cop'
p2401
I2429
sS'chidl'
p2402
I5260
sS'cow'
p2403
I624
sS'ill'
p2404
I4175
sS'cob'
p2405
I2101
sS'devotion'
p2406
I6438
sS'receives'
p2407
I3139
sS'receiver'
p2408
I5937
sS'peacefully'
p2409
I5654
sS'pulleys'
p2410
I6640
sS'tone'
p2411
I4369
sS'royal'
p2412
I3668
sS'excess'
p2413
I8224
sS'headlights'
p2414
I3911
sS'rakes'
p2415
I7906
sS'boogieboard'
p2416
I7891
sS'homebase'
p2417
I5039
sS'flexible'
p2418
I5124
sS'cutouts'
p2419
I3229
sS'pepco'
p2420
I7818
sS'families'
p2421
I7589
sS'sweatshir'
p2422
I6947
sS'relaxing'
p2423
I1507
sS'attacked'
p2424
I4426
sS'droplets'
p2425
I2269
sS'armbands'
p2426
I3714
sS'hoist'
p2427
I7105
sS'davison'
p2428
I7464
sS'east'
p2429
I7608
sS'drumset'
p2430
I6842
sS'launcher'
p2431
I4296
sS'launches'
p2432
I2086
sS'air'
p2433
I64
sS'aim'
p2434
I2991
sS'applies'
p2435
I3949
sS'aid'
p2436
I2700
sS'aig'
p2437
I4940
sS'voice'
p2438
I7844
sS'launched'
p2439
I4411
sS'cylinder'
p2440
I4621
sS'sticker'
p2441
I7691
sS'dumped'
p2442
I5505
sS'skipping'
p2443
I3212
sS'tissue'
p2444
I6130
sS'brake'
p2445
I4398
sS'cone'
p2446
I1019
sS'descent'
p2447
I3842
sS'perform'
p2448
I911
sS'apparently'
p2449
I6527
sS'grapple'
p2450
I4437
sS'sheltered'
p2451
I4247
sS'synch'
p2452
I6659
sS'stuntman'
p2453
I4720
sS'plates'
p2454
I2019
sS'bunny'
p2455
I1849
sS'wheel'
p2456
I580
sS'pastels'
p2457
I7418
sS'horseshoes'
p2458
I3192
sS'hang'
p2459
I930
sS'evil'
p2460
I2291
sS'hand'
p2461
I170
sS'nip'
p2462
I7730
sS'wispy'
p2463
I5369
sS'kept'
p2464
I3746
sS'hopping'
p2465
I2360
sS'thw'
p2466
I6778
sS'exited'
p2467
I8340
sS'ragged'
p2468
I3673
sS'contact'
p2469
I5551
sS'goals'
p2470
I7852
sS'the'
p2471
I4
sS'camps'
p2472
I8153
sS'musical'
p2473
I1521
sS'uniquely'
p2474
I5365
sS'mingle'
p2475
I3946
sS'athletic'
p2476
I1473
sS'photo'
p2477
I452
sS'gravity'
p2478
I7402
sS'goggles'
p2479
I536
sS'upturned'
p2480
I2962
sS'poses'
p2481
I330
sS'tramples'
p2482
I6196
sS'hills'
p2483
I1153
sS'flooring'
p2484
I3560
sS'yamaha'
p2485
I6443
sS'photographer'
p2486
I1155
sS'hilly'
p2487
I2024
sS'spread'
p2488
I1208
sS'board'
p2489
I327
sS'photographed'
p2490
I1621
sS'basset'
p2491
I3523
sS'lightsaber'
p2492
I7795
sS'hoists'
p2493
I7918
sS'caps'
p2494
I1459
sS'arab'
p2495
I3262
sS'boxes'
p2496
I1933
sS'boxer'
p2497
I1348
sS'barge'
p2498
I5224
sS'cape'
p2499
I1489
sS'eroded'
p2500
I7016
sS'espana'
p2501
I7426
sS'slouched'
p2502
I8466
sS'gandhi'
p2503
I5514
sS'sparse'
p2504
I3821
sS'night'
p2505
I301
sS'security'
p2506
I2077
sS'antique'
p2507
I5112
sS'sends'
p2508
I7750
sS'eyeing'
p2509
I7581
sS'born'
p2510
I7259
sS'congratulate'
p2511
I5920
sS'purple'
p2512
I186
sS'violinist'
p2513
I7153
sS'filming'
p2514
I4376
sS'asking'
p2515
I2064
sS'beating'
p2516
I3986
sS'peek'
p2517
I3485
sS'posh'
p2518
I6054
sS'pose'
p2519
I237
sS'illustration'
p2520
I4098
sS'architectural'
p2521
I4748
sS'scarves'
p2522
I1243
sS'pees'
p2523
I5877
sS'post'
p2524
I1404
sS'woamn'
p2525
I8225
sS'trophy'
p2526
I1968
sS'breaded'
p2527
I5370
sS'diner'
p2528
I2515
sS'newspapers'
p2529
I2640
sS'accepts'
p2530
I5031
sS'anime'
p2531
I5026
sS'horizon'
p2532
I1605
sS'gingerbread'
p2533
I6910
sS'faint'
p2534
I7379
sS'mantle'
p2535
I4868
sS'float'
p2536
I1007
sS'profession'
p2537
I7993
sS'bound'
p2538
I1997
sS'balances'
p2539
I1009
sS'prisoner'
p2540
I3948
sS'capped'
p2541
I3151
sS'balanced'
p2542
I3323
sS'rustic'
p2543
I7621
sS'wal'
p2544
I8118
sS'fuchsia'
p2545
I6147
sS'fight'
p2546
I509
sS'way'
p2547
I669
sS'wax'
p2548
I8191
sS'was'
p2549
I1734
sS'war'
p2550
I818
sS'snowy'
p2551
I140
sS'converse'
p2552
I2765
sS'snows'
p2553
I2996
sS'chainmail'
p2554
I6032
sS'mysterious'
p2555
I8300
sS'profile'
p2556
I2506
sS'dead'
p2557
I1102
sS'sailboats'
p2558
I4505
sS'bullseye'
p2559
I5694
sS'responding'
p2560
I8123
sS'distored'
p2561
I5760
sS'entertainers'
p2562
I6243
sS'revel'
p2563
I7177
sS'crystal'
p2564
I2772
sS'goldenrod'
p2565
I8379
sS'coverings'
p2566
I2819
sS'palid'
p2567
I8409
sS'lowering'
p2568
I7295
sS'umpire'
p2569
I3987
sS'muscular'
p2570
I2023
sS'howling'
p2571
I3286
sS'prayer'
p2572
I4818
sS'wintry'
p2573
I3357
sS'mold'
p2574
I6004
sS'mole'
p2575
I5493
sS'physical'
p2576
I5550
sS'dimly'
p2577
I1607
sS'musher'
p2578
I3996
sS'topped'
p2579
I3587
sS'interested'
p2580
I2953
sS'holding'
p2581
I49
sS'test'
p2582
I2304
sS'frolic'
p2583
I3964
sS'scored'
p2584
I7995
sS'brothers'
p2585
I3205
sS"o'clock"
p2586
I7777
sS'fairground'
p2587
I2415
sS'welcome'
p2588
I5307
sS'notepad'
p2589
I5265
sS'scores'
p2590
I7060
sS'troupe'
p2591
I7219
sS'huskey'
p2592
I7212
sS'tugboat'
p2593
I4024
sS'alertly'
p2594
I5995
sS'together'
p2595
I145
sS'collared'
p2596
I2689
sS'reception'
p2597
I2878
sS'paced'
p2598
I6865
sS'igloo'
p2599
I2679
sS'vampires'
p2600
I6693
sS'dance'
p2601
I546
sS'global'
p2602
I6065
sS'silverware'
p2603
I8102
sS'horseback'
p2604
I1624
sS'teeing'
p2605
I7934
sS'treed'
p2606
I7991
sS'battle'
p2607
I2623
sS'speach'
p2608
I6469
sS'scowling'
p2609
I7618
sS'somthing'
p2610
I2299
sS'zone'
p2611
I6143
sS'hovers'
p2612
I3388
sS'jogger'
p2613
I2046
sS'cinderblock'
p2614
I8072
sS'hump'
p2615
I4958
sS'flash'
p2616
I4560
sS'plling'
p2617
I7261
sS'flopping'
p2618
I4893
sS'sarongs'
p2619
I6455
sS'jogged'
p2620
I6181
sS'brown'
p2621
I26
sS'browm'
p2622
I7309
sS'protective'
p2623
I1337
sS'mountin'
p2624
I7390
sS'automobiles'
p2625
I4964
sS'vegas'
p2626
I4170
sS'sunbathe'
p2627
I3802
sS'kitten'
p2628
I2196
sS'responders'
p2629
I6710
sS'gnarly'
p2630
I7672
sS'turns'
p2631
I1255
sS'gun'
p2632
I806
sS'p'
I4529
sS'guitars'
p2633
I2119
sS'steeple'
p2634
I6736
sS'sidewalk'
p2635
I162
sS'woven'
p2636
I2790
sS'upper'
p2637
I2469
sS'hte'
p2638
I7596
sS'brave'
p2639
I6884
sS'prairie'
p2640
I3678
sS'windboarder'
p2641
I7779
sS'cargo'
p2642
I3103
sS'appear'
p2643
I1568
sS'assistance'
p2644
I3176
sS'wildebeest'
p2645
I6561
sS'shares'
p2646
I8195
sS'uniform'
p2647
I200
sS'setter'
p2648
I3477
sS'supporting'
p2649
I4187
sS'explosion'
p2650
I2886
sS'wrestles'
p2651
I2547
sS'burnished'
p2652
I5235
sS'redskins'
p2653
I6661
sS'goldfish'
p2654
I5257
sS'gorge'
p2655
I5687
sS'hoops'
p2656
I892
sS'appears'
p2657
I879
sS'change'
p2658
I2567
sS'pedals'
p2659
I3423
sS'incoming'
p2660
I2902
sS'flames'
p2661
I1622
sS'vibrating'
p2662
I6088
sS'exiting'
p2663
I3526
sS'bangs'
p2664
I4952
sS'patriotic'
p2665
I7720
sS'pillow'
p2666
I1448
sS'macintosh'
p2667
I5302
sS'defensive'
p2668
I3710
sS'hiking'
p2669
I598
sS'poppies'
p2670
I7586
sS'marked'
p2671
I1525
sS'uphill'
p2672
I1589
sS'tartan'
p2673
I4609
sS'snowboard'
p2674
I466
sS'seashore'
p2675
I2235
sS'marker'
p2676
I1736
sS'highschoolers'
p2677
I7790
sS'market'
p2678
I722
sS'bigs'
p2679
I6001
sS'throughwindow'
p2680
I6788
sS'live'
p2681
I7164
sS'waterline'
p2682
I8469
sS'angels'
p2683
I2830
sS'matador'
p2684
I4029
sS'intently'
p2685
I2718
sS'sewn'
p2686
I7436
sS'entrance'
p2687
I2635
sS'countertop'
p2688
I3227
sS'club'
p2689
I1590
sS'clue'
p2690
I7447
sS'slinky'
p2691
I4408
sS'outstreached'
p2692
I2405
sS'bowler'
p2693
I2598
sS'skaters'
p2694
I2047
sS'decked'
p2695
I5426
sS'car'
p2696
I138
sS'cap'
p2697
I259
sS'cat'
p2698
I589
sS'labeled'
p2699
I3453
sS'gathers'
p2700
I2289
sS'can'
p2701
I828
sS'cam'
p2702
I3850
sS'breeds'
p2703
I2652
sS'heart'
p2704
I2173
sS'grassy'
p2705
I124
sS'pauses'
p2706
I1859
sS'wetsuite'
p2707
I6735
sS'expanding'
p2708
I6869
sS'chip'
p2709
I2234
sS'waterski'
p2710
I2712
sS'bridesmaid'
p2711
I7010
sS'heard'
p2712
I3755
sS'chin'
p2713
I2194
sS'clothing'
p2714
I350
sS'airplane'
p2715
I1130
sS'wetsuits'
p2716
I3332
sS'windsailing'
p2717
I7370
sS'cruisship'
p2718
I8445
sS'discussion'
p2719
I8248
sS'spreads'
p2720
I3088
sS'lounge'
p2721
I1684
sS'motorcross'
p2722
I7680
sS'dominance'
p2723
I5439
sS'rotweiler'
p2724
I4925
sS'product'
p2725
I2768
sS'staircase'
p2726
I857
sS'dive'
p2727
I1784
sS'use'
p2728
I2219
sS'disgusted'
p2729
I7719
sS'jousting'
p2730
I4725
sS'produce'
p2731
I3310
sS'heroes'
p2732
I5990
sS'froup'
p2733
I5860
sS'lifting'
p2734
I1889
sS'goal'
p2735
I477
sS'noses'
p2736
I1958
sS'candles'
p2737
I1203
sS'headcover'
p2738
I7106
sS'progressively'
p2739
I7050
sS'clover'
p2740
I2891
sS'fireball'
p2741
I4672
sS'punting'
p2742
I4469
sS'typical'
p2743
I5624
sS'tagged'
p2744
I3294
sS'serving'
p2745
I2998
sS'ourdoors'
p2746
I5747
sS'colt'
p2747
I5233
sS'haircut'
p2748
I2391
sS'displayed'
p2749
I3141
sS'consulting'
p2750
I6684
sS'playful'
p2751
I2275
sS'ended'
p2752
I6975
sS'cold'
p2753
I905
sS'still'
p2754
I1595
sS'birds'
p2755
I724
sS'cola'
p2756
I7330
sS'manequins'
p2757
I6890
sS'tending'
p2758
I6733
sS'rooftop'
p2759
I3311
sS'curly'
p2760
I840
sS'willow'
p2761
I5811
sS'holing'
p2762
I7204
sS'reacting'
p2763
I5501
sS'curls'
p2764
I4867
sS'neptuno'
p2765
I5802
sS'forms'
p2766
I7804
sS'window'
p2767
I336
sS'spacious'
p2768
I8007
sS'showered'
p2769
I5978
sS'tiara'
p2770
I2935
sS'non'
p2771
I3654
sS'oppsite'
p2772
I5326
sS'scaling'
p2773
I1270
sS'tails'
p2774
I2542
sS'slacks'
p2775
I3197
sS'identically'
p2776
I3578
sS'not'
p2777
I1367
sS'hall'
p2778
I2032
sS'halo'
p2779
I4569
sS'barrow'
p2780
I5794
sS'commuters'
p2781
I4479
sS'idyllic'
p2782
I8255
sS'streaks'
p2783
I2968
sS'cliffs'
p2784
I2352
sS'em'
p2785
I5494
sS'ee'
p2786
I8159
sS'directing'
p2787
I8138
sS'goose'
p2788
I2601
sS'roading'
p2789
I4325
sS'fires'
p2790
I3745
sS'kilts'
p2791
I7284
sS'telephot'
p2792
I6926
sS'happen'
p2793
I6135
sS'monitors'
p2794
I4756
sS'amusement'
p2795
I855
sS'wheelers'
p2796
I3430
sS'album'
p2797
I5101
sS'shown'
p2798
I1032
sS'opened'
p2799
I3489
sS'space'
p2800
I1550
sS'looking'
p2801
I88
sS'navigating'
p2802
I3066
sS'showroom'
p2803
I7019
sS'receiving'
p2804
I4956
sS'shows'
p2805
I932
sS'thong'
p2806
I8163
sS'cars'
p2807
I588
sS'saxophones'
p2808
I3671
sS'acrouss'
p2809
I6918
sS'grimacing'
p2810
I4118
sS'marina'
p2811
I3879
sS'marine'
p2812
I5044
sS'card'
p2813
I2611
sS'care'
p2814
I3420
sS'domes'
p2815
I5482
sS'british'
p2816
I2821
sS'honest'
p2817
I8292
sS'tangled'
p2818
I3567
sS'domed'
p2819
I7526
sS'streetlamp'
p2820
I7061
sS'sprawling'
p2821
I7584
sS'tennis'
p2822
I137
sS'625'
p2823
I8230
sS'striking'
p2824
I2427
sS'zag'
p2825
I7976
sS'mountainside'
p2826
I1079
sS'flipping'
p2827
I1482
sS'comprised'
p2828
I8069
sS'directly'
p2829
I3321
sS'ring'
p2830
I558
sS'drove'
p2831
I5275
sS'size'
p2832
I2464
sS'sheep'
p2833
I647
sS'sheer'
p2834
I1449
sS'checked'
p2835
I2336
sS'jugs'
p2836
I7197
sS'caught'
p2837
I1016
sS'breed'
p2838
I2099
sS'checker'
p2839
I7131
sS'carousel'
p2840
I3528
sS'national'
p2841
I5945
sS'friend'
p2842
I995
sS'mostly'
p2843
I1434
sS'poms'
p2844
I4353
sS'expanse'
p2845
I3445
sS'flowery'
p2846
I1796
sS'quad'
p2847
I2445
sS'pnc'
p2848
I6099
sS'flowers'
p2849
I316
sS'than'
p2850
I2874
sS'television'
p2851
I1971
sS'rugged'
p2852
I3584
sS'backgound'
p2853
I8375
sS'swarming'
p2854
I8063
sS'karate'
p2855
I1042
sS'apples'
p2856
I2188
sS'fruits'
p2857
I7875
sS'extinguish'
p2858
I4157
sS'browses'
p2859
I3976
sS'lunches'
p2860
I6261
sS'angel'
p2861
I6287
sS'grotto'
p2862
I8280
sS'slat'
p2863
I8476
sS'overnight'
p2864
I7743
sS'windsurf'
p2865
I6775
sS'slam'
p2866
I3972
sS'distorted'
p2867
I2176
sS'slab'
p2868
I3819
sS'form'
p2869
I2507
sS'veteran'
p2870
I4979
sS'snout'
p2871
I6278
sS'equipment'
p2872
I480
sS'mr.'
p2873
I3681
sS'breakdancer'
p2874
I6542
sS'objective'
p2875
I6163
sS'awaits'
p2876
I5832
sS'begin'
p2877
I3002
sS'mountaineer'
p2878
I2454
sS'sledge'
p2879
I2673
sS'neatly'
p2880
I6193
sS'sightseers'
p2881
I7845
sS'lookers'
p2882
I7781
sS'america'
p2883
I3529
sS'greyish'
p2884
I3608
sS'sprinting'
p2885
I3988
sS'steady'
p2886
I4446
sS'tooth'
p2887
I3670
sS'sunset'
p2888
I456
sS'clearing'
p2889
I2245
sS'professional'
p2890
I992
sS'cyclers'
p2891
I7506
sS'german'
p2892
I523
sS'13406'
p2893
I5463
sS'sheepdogs'
p2894
I6792
sS'crashing'
p2895
I1096
sS'snack'
p2896
I2143
sS'handlebars'
p2897
I1676
sS'stair'
p2898
I1571
sS'stained'
p2899
I2801
sS'only'
p2900
I1119
sS'pumpkin'
p2901
I2321
sS'cannon'
p2902
I1857
sS'dragster'
p2903
I6357
sS'duel'
p2904
I7135
sS'shorthaired'
p2905
I6095
sS'cannot'
p2906
I4196
sS'bracelets'
p2907
I5103
sS'pursed'
p2908
I6846
sS'dimmly'
p2909
I6111
sS'stroll'
p2910
I3834
sS'hoolahoops'
p2911
I6323
sS'leather'
p2912
I576
sS'concert'
p2913
I1431
sS'burst'
p2914
I6422
sS'anchored'
p2915
I6795
sS'asleep'
p2916
I1085
sS'hoes'
p2917
I5079
sS'sport'
p2918
I1177
sS'midpitch'
p2919
I7992
sS'israeli'
p2920
I4874
sS'tackling'
p2921
I1343
sS'3'
I1379
sS'skyscraper'
p2922
I2440
sS'between'
p2923
I357
sS'ladie'
p2924
I6565
sS'notice'
p2925
I5034
sS'competiting'
p2926
I7078
sS'blame'
p2927
I6968
sS'armenian'
p2928
I2650
sS'afican'
p2929
I7322
sS'stages'
p2930
I7733
sS'fliers'
p2931
I5970
sS'shorline'
p2932
I7484
sS'mono'
p2933
I8034
sS'monk'
p2934
I3195
sS'wheels'
p2935
I1433
sS'comes'
p2936
I1161
sS'nearby'
p2937
I311
sS'fencers'
p2938
I2639
sS'jeans'
p2939
I231
sS'pilings'
p2940
I6332
sS'learning'
p2941
I2862
sS'forehand'
p2942
I5786
sS'pigtails'
p2943
I1575
sS'sledding'
p2944
I1559
sS'cycling'
p2945
I2184
sS'lioness'
p2946
I3326
sS'menacingly'
p2947
I5573
sS'tropical'
p2948
I1718
sS'beckons'
p2949
I7855
sS'fours'
p2950
I4378
sS'wounds'
p2951
I7386
sS'busying'
p2952
I6919
sS'rubs'
p2953
I2549
sS'foggy'
p2954
I1330
sS'masonry'
p2955
I6489
sS'skiers'
p2956
I882
sS'barrette'
p2957
I8096
sS'crumb'
p2958
I6771
sS'developing'
p2959
I5612
sS'these'
p2960
I986
sS'winks'
p2961
I3603
sS'chinatown'
p2962
I5866
sS'scarily'
p2963
I6266
sS'trick'
p2964
I156
sS'sledders'
p2965
I6991
sS'tilling'
p2966
I7856
sS'coutryside'
p2967
I7293
sS'soil'
p2968
I5078
sS'inflatable'
p2969
I535
sS'embrace'
p2970
I1294
sS'heels'
p2971
I1868
sS'somebody'
p2972
I2806
sS'waterway'
p2973
I2533
sS'ship'
p2974
I1388
sS'cathcer'
p2975
I7655
sS'gentlemen'
p2976
I4774
sS'figurine'
p2977
I5641
sS'fraternal'
p2978
I7765
sS'pullup'
p2979
I5292
sS'streams'
p2980
I8210
sS'document'
p2981
I5007
sS'finish'
p2982
I2528
sS'iceskate'
p2983
I7000
sS'jomps'
p2984
I5347
sS'foal'
p2985
I4123
sS'foam'
p2986
I1272
sS'marking'
p2987
I3724
sS'tophats'
p2988
I7917
sS'fruit'
p2989
I1436
sS'investigates'
p2990
I4974
sS'romps'
p2991
I6683
sS'swallow'
p2992
I8322
sS'theater'
p2993
I2080
sS'charges'
p2994
I7230
sS'bagpipes'
p2995
I2078
sS'severe'
p2996
I5888
sS'breeze'
p2997
I3803
sS'pitbull'
p2998
I1318
sS'charged'
p2999
I7590
sS'taxi'
p3000
I2983
sS'livestock'
p3001
I4061
sS'tossing'
p3002
I1524
sS'armour'
p3003
I7576
sS'dancers'
p3004
I2114
sS'neon'
p3005
I1084
sS'shouts'
p3006
I5444
sS'sweeping'
p3007
I5754
sS'wrecks'
p3008
I7532
sS'actor'
p3009
I7797
sS'touch'
p3010
I1471
sS'speed'
p3011
I1065
sS'dueling'
p3012
I6264
sS'sweatpants'
p3013
I8175
sS'mingling'
p3014
I3766
sS'snowboarder'
p3015
I224
sS'thinking'
p3016
I4753
sS'sunshade'
p3017
I2802
sS'mirrored'
p3018
I5090
sS'cordoned'
p3019
I7822
sS'uptop'
p3020
I5399
sS'struck'
p3021
I5019
sS'swim'
p3022
I431
sS'propped'
p3023
I2992
sS'overcoat'
p3024
I2792
sS'frown'
p3025
I5232
sS'read'
p3026
I1615
sS'stools'
p3027
I2929
sS'leapfrog'
p3028
I3794
sS'overlooks'
p3029
I1887
sS'listening'
p3030
I1292
sS'stunt'
p3031
I464
sS'lady'
p3032
I232
sS'rear'
p3033
I1493
sS'conversing'
p3034
I2922
sS'streamers'
p3035
I3278
sS'fairgrounds'
p3036
I8416
sS'thrower'
p3037
I5066
sS't'
I292
sS'downward'
p3038
I3480
sS'ceremonial'
p3039
I7962
sS'twelve'
p3040
I5983
sS'verbal'
p3041
I7578
sS'apartments'
p3042
I7147
sS'sidwalk'
p3043
I7927
sS'bobbed'
p3044
I5845
sS'rehearsing'
p3045
I7271
sS'dancefloor'
p3046
I5012
sS'garland'
p3047
I8030
sS'wakeboarders'
p3048
I5506
sS'advertisment'
p3049
I6346
sS'squirt'
p3050
I2283
sS'hustle'
p3051
I6554
sS'wheat'
p3052
I3782
sS'pylons'
p3053
I5293
sS'business'
p3054
I1519
sS'volkswagen'
p3055
I6220
sS'incline'
p3056
I1787
sS'sniffs'
p3057
I1484
sS'assemble'
p3058
I6821
sS'strainer'
p3059
I5956
sS'exciting'
p3060
I7873
sS'throw'
p3061
I621
sS'uncrowded'
p3062
I4368
sS'kickflip'
p3063
I4824
sS'paints'
p3064
I1714
sS'wolf'
p3065
I2833
sS'chow'
p3066
I4321
sS'youn'
p3067
I3660
sS'youg'
p3068
I8410
sS'earring'
p3069
I2505
sS'elementary'
p3070
I6433
sS'stare'
p3071
I1727
sS'fast'
p3072
I671
sS'supervising'
p3073
I5659
sS'log'
p3074
I654
sS'prepare'
p3075
I2466
sS'area'
p3076
I151
sS'removing'
p3077
I3677
sS'start'
p3078
I2054
sS'cats'
p3079
I1938
sS'low'
p3080
I564
sS'lot'
p3081
I400
sS'bathingsuit'
p3082
I5325
sS'pitcher'
p3083
I1340
sS'pitches'
p3084
I2973
sS'curiously'
p3085
I3313
sS'cottage'
p3086
I5681
sS'pitched'
p3087
I8364
sS'trying'
p3088
I294
sS'strollers'
p3089
I1865
sS'embedded'
p3090
I6766
sS'bucket'
p3091
I610
sS'freddy'
p3092
I5835
sS'tones'
p3093
I7557
sS'bucked'
p3094
I4556
sS'wristbands'
p3095
I3068
sS'tutus'
p3096
I2642
sS'wrestlers'
p3097
I1165
sS'juggles'
p3098
I2347
sS'oxen'
p3099
I4045
sS'scanner'
p3100
I6271
sS'angled'
p3101
I7705
sS'sales'
p3102
I6379
sS'loops'
p3103
I7823
sS'skateboarders'
p3104
I1782
sS'showerhead'
p3105
I5095
sS'nerf'
p3106
I4151
sS'milkbone'
p3107
I6289
sS'antenna'
p3108
I4908
sS'backstroke'
p3109
I1953
sS'foothills'
p3110
I3571
sS'carjack'
p3111
I5290
sS'that'
p3112
I152
sS'braided'
p3113
I8271
sS'gambling'
p3114
I5218
sS'you'
p3115
I1361
sS'forcing'
p3116
I8282
sS'poor'
p3117
I4747
sS'polar'
p3118
I7541
sS'treks'
p3119
I4022
sS'drift'
p3120
I3142
sS'wields'
p3121
I6064
sS'podium'
p3122
I2941
sS'poof'
p3123
I5566
sS'peak'
p3124
I1287
sS'suited'
p3125
I2620
sS'pooh'
p3126
I2885
sS'overturned'
p3127
I3200
sS'pool'
p3128
I93
sS'building'
p3129
I116
sS'tandom'
p3130
I6728
sS'thermos'
p3131
I4318
sS'bystander'
p3132
I7980
sS'christmastime'
p3133
I6882
sS'embracing'
p3134
I2139
sS'stange'
p3135
I6761
sS'strings'
p3136
I2561
sS'since'
p3137
I8482
sS'skeleton'
p3138
I2049
sS'pointing'
p3139
I604
sS'mp3'
p3140
I4805
sS'messy'
p3141
I2537
sS'inflating'
p3142
I7142
sS'brunettes'
p3143
I4789
sS'revealed'
p3144
I5386
sS'carpet'
p3145
I779
sS'referring'
p3146
I6957
sS'powerboats'
p3147
I7996
sS'gymnast'
p3148
I2061
sS'kneepads'
p3149
I6593
sS'belaying'
p3150
I8411
sS'croquette'
p3151
I6476
sS'fountain'
p3152
I274
sS'slushies'
p3153
I8423
sS'vert'
p3154
I4424
sS'very'
p3155
I295
sS'robes'
p3156
I1567
sS'attemping'
p3157
I7094
sS'balancing'
p3158
I908
sS'decide'
p3159
I5273
sS'headgear'
p3160
I7838
sS'robed'
p3161
I4810
sS'segway'
p3162
I3695
sS'louis'
p3163
I3163
sS'mittens'
p3164
I2839
sS'handwritten'
p3165
I7622
sS'smock'
p3166
I3934
sS'cookies'
p3167
I3791
sS'fence'
p3168
I173
sS'streets'
p3169
I1025
sS'casual'
p3170
I2783
sS'tussle'
p3171
I2144
sS'darkness'
p3172
I4563
sS'dribbling'
p3173
I1753
sS'looling'
p3174
I5739
sS'witnesses'
p3175
I5562
sS'certificates'
p3176
I5130
sS'loose'
p3177
I3768
sS'convienance'
p3178
I8418
sS'venice'
p3179
I7556
sS'tracks'
p3180
I1008
sS'pub'
p3181
I6809
sS'trunk'
p3182
I1011
sS'strong'
p3183
I4308
sS'patterened'
p3184
I6338
sS'arena'
p3185
I1533
sS'amoung'
p3186
I5906
sS'colored'
p3187
I234
sS'ahead'
p3188
I1181
sS'creepy'
p3189
I8234
sS'soldier'
p3190
I2411
sS'amount'
p3191
I4243
sS'dogsled'
p3192
I3449
sS'advertising'
p3193
I1631
sS'trainer'
p3194
I1764
sS'goalies'
p3195
I7639
sS'family'
p3196
I474
sS'bordered'
p3197
I5287
sS'put'
p3198
I1082
sS'chunky'
p3199
I7971
sS'aimed'
p3200
I4577
sS'trained'
p3201
I6162
sS'toys'
p3202
I712
sS'thatched'
p3203
I3998
sS'somersaulting'
p3204
I7336
sS'takes'
p3205
I288
sS'taken'
p3206
I990
sS'chestnut'
p3207
I7646
sS'bushes'
p3208
I864
sS'ejected'
p3209
I3233
sS'jr.'
p3210
I4583
sS'kayakers'
p3211
I2131
sS'mounted'
p3212
I5062
sS'producing'
p3213
I6513
sS'sunning'
p3214
I6017
sS'scalling'
p3215
I5435
sS'nine'
p3216
I3309
sS'barbwire'
p3217
I5525
sS'againest'
p3218
I7634
sS'pushes'
p3219
I718
sS'pushed'
p3220
I1648
sS'cows'
p3221
I1643
sS'phrase'
p3222
I3734
sS'magenta'
p3223
I7048
sS'pinscher'
p3224
I5725
sS'hamburgers'
p3225
I2485
sS'flatbed'
p3226
I6718
sS'chops'
p3227
I3917
sS'greenpeace'
p3228
I7043
sS'ledges'
p3229
I6019
sS'menus'
p3230
I4054
sS'wigs'
p3231
I3350
sS'tried'
p3232
I4252
sS'tattoo'
p3233
I1074
sS'tries'
p3234
I406
sS'malnourished'
p3235
I5815
sS'horizontal'
p3236
I2006
sS'a'
I1
sS'racetrack'
p3237
I691
sS'piggybacking'
p3238
I8060
sS'chopsticks'
p3239
I2108
sS'crafts'
p3240
I4452
sS'banks'
p3241
I3160
sS'inline'
p3242
I1334
sS'egg'
p3243
I7500
sS'redish'
p3244
I5880
sS'ding'
p3245
I7263
sS'help'
p3246
I1284
sS'chalked'
p3247
I5868
sS'cyclists'
p3248
I1097
sS'eachothers'
p3249
I5555
sS'held'
p3250
I577
sS'wiener'
p3251
I4523
sS'hell'
p3252
I2420
sS'mcdonalds'
p3253
I4821
sS'fanning'
p3254
I6492
sS'carpeted'
p3255
I1850
sS'multistory'
p3256
I7782
sS'heron'
p3257
I3370
sS'evening'
p3258
I1976
sS'digging'
p3259
I894
sS'nestled'
p3260
I7667
sS'food'
p3261
I444
sS'equpiment'
p3262
I7122
sS'cupcake'
p3263
I6082
sS'peeing'
p3264
I4689
sS'starbucks'
p3265
I4113
sS'crewmen'
p3266
I7115
sS'foot'
p3267
I763
sS'ninja'
p3268
I2021
sS'slicker'
p3269
I4726
sS'payer'
p3270
I6294
sS'fully'
p3271
I3727
sS'kayaking'
p3272
I1002
sS'enlarged'
p3273
I6680
sS'armstand'
p3274
I7599
sS'stopped'
p3275
I2687
sS'fairy'
p3276
I2195
sS'trailer'
p3277
I3146
sS'dandilions'
p3278
I6231
sS'heavy'
p3279
I1023
sS'swaetshirt'
p3280
I6406
sS'jaws'
p3281
I6977
sS'blank'
p3282
I6184
sS'positioned'
p3283
I8027
sS'beyond'
p3284
I2610
sS'event'
p3285
I583
sS'steered'
p3286
I4093
sS'travels'
p3287
I2037
sS'surrounded'
p3288
I276
sS'meditating'
p3289
I6815
sS'safety'
p3290
I939
sS'7'
I3470
sS'outrun'
p3291
I4344
sS'dunk'
p3292
I4035
sS'expansive'
p3293
I5315
sS'bald'
p3294
I609
sS'bass'
p3295
I4052
sS'protruding'
p3296
I5216
sS'dirt'
p3297
I102
sS'diry'
p3298
I5488
sS'pug'
p3299
I2012
sS'dune'
p3300
I1039
sS'labs'
p3301
I3462
sS'houses'
p3302
I1498
sS'base'
p3303
I697
sS'coastline'
p3304
I3795
sS'ask'
p3305
I5461
sS'ash'
p3306
I8053
sS'algae'
p3307
I8414
sS'bash'
p3308
I6838
sS'contorts'
p3309
I7055
sS'launch'
p3310
I3188
sS'curtsey'
p3311
I8377
sS'cheering'
p3312
I1926
sS'american'
p3313
I433
sS'fayre'
p3314
I5256
sS'scouts'
p3315
I3728
sS'interviews'
p3316
I2951
sS'drooling'
p3317
I4642
sS'knocking'
p3318
I6646
sS'bulldozer'
p3319
I7774
sS'scrolled'
p3320
I8494
sS'elder'
p3321
I3027
sS'hangs'
p3322
I633
sS'mist'
p3323
I2753
sS'splattered'
p3324
I6516
sS'maple'
p3325
I5982
sS'horse'
p3326
I226
sS'blossom'
p3327
I7466
sS'obedience'
p3328
I3428
sS'airborne'
p3329
I525
sS'pinned'
p3330
I3289
sS'belongs'
p3331
I6810
sS'station'
p3332
I902
sS'powerwashing'
p3333
I7001
sS'mardis'
p3334
I7297
sS'hundred'
p3335
I6500
sS'banana'
p3336
I8275
sS'policeperson'
p3337
I7069
sS'squirts'
p3338
I2492
sS'bowed'
p3339
I4127
sS'selling'
p3340
I1725
sS'passed'
p3341
I3137
sS'trapped'
p3342
I4199
sS'inground'
p3343
I2677
sS'softdrinks'
p3344
I7776
sS'readies'
p3345
I6657
sS'signaling'
p3346
I5172
sS'steaks'
p3347
I8242
sS'1915'
p3348
I8218
sS'leotard'
p3349
I1804
sS'grocery'
p3350
I1158
sS'tunic'
p3351
I3586
sS'performers'
p3352
I2260
sS'grey'
p3353
I213
sS'photographing'
p3354
I3525
sS'bride'
p3355
I725
sS'bobsled'
p3356
I6843
sS'gren'
p3357
I6371
sS'toward'
p3358
I320
sS'shirts'
p3359
I354
sS'mickey'
p3360
I2317
sS'deciding'
p3361
I7080
sS'withered'
p3362
I6075
sS'kart'
p3363
I3029
sS'headwear'
p3364
I7900
sS'chipmunk'
p3365
I7161
sS'alongside'
p3366
I867
sS'juice'
p3367
I2017
sS'adolescents'
p3368
I6539
sS'concentration'
p3369
I4429
sS'lie'
p3370
I3014
sS'constructions'
p3371
I5170
sS'cave'
p3372
I1232
sS'officers'
p3373
I1499
sS'camouflage'
p3374
I985
sS'lit'
p3375
I701
sS'lip'
p3376
I2909
sS'breaststroke'
p3377
I7881
sS'floatlys'
p3378
I8367
sS'towards'
p3379
I216
sS'sponsored'
p3380
I2041
sS'position'
p3381
I1539
sS'tonge'
p3382
I6470
sS'mobile'
p3383
I2107
sS'clear'
p3384
I703
sS'snapping'
p3385
I4801
sS'clean'
p3386
I2268
sS'tubes'
p3387
I4088
sS'hips'
p3388
I2683
sS'boredom'
p3389
I5709
sS'corgis'
p3390
I5737
sS'hovered'
p3391
I7821
sS'cowgirl'
p3392
I2776
sS'celebrities'
p3393
I6052
sS'661'
p3394
I7531
sS'casterol'
p3395
I6411
sS'corgie'
p3396
I8172
sS'coaster'
p3397
I1066
sS'gelled'
p3398
I5335
sS'justice'
p3399
I8029
sS'scooter'
p3400
I617
sS'ques'
p3401
I7842
sS'pretty'
p3402
I2457
sS'circle'
p3403
I1319
sS'dominant'
p3404
I6974
sS'waterproof'
p3405
I8462
sS'trees'
p3406
I203
sS'speckled'
p3407
I3650
sS'feels'
p3408
I4288
sS'pretending'
p3409
I2070
sS'basement'
p3410
I3796
sS'during'
p3411
I279
sS'footballers'
p3412
I2539
sS'catches'
p3413
I361
sS'gloved'
p3414
I2731
sS'gazebo'
p3415
I4299
sS'perfume'
p3416
I7863
sS'gloves'
p3417
I743
sS'corgi'
p3418
I2273
sS'giong'
p3419
I7883
sS'hummer'
p3420
I3582
sS'throwing'
p3421
I397
sS'passenager'
p3422
I6396
sS'waterskiis'
p3423
I5449
sS'protecting'
p3424
I6426
sS'close'
p3425
I659
sS'chasseing'
p3426
I5554
sS'foggyday'
p3427
I5560
sS'towarn'
p3428
I6129
sS'pictures'
p3429
I563
sS'won'
p3430
I4759
sS'probably'
p3431
I7951
sS'circumvents'
p3432
I7235
sS'conditions'
p3433
I4341
sS'missing'
p3434
I3266
sS'fenced'
p3435
I668
sS'spray'
p3436
I863
sS'readying'
p3437
I4240
sS'sailboard'
p3438
I4701
sS'burned'
p3439
I7305
sS'kneeled'
p3440
I7710
sS'both'
p3441
I487
sS'buzy'
p3442
I4494
sS'boxers'
p3443
I2186
sS'vault'
p3444
I2892
sS'sheltie'
p3445
I2872
sS'stoplight'
p3446
I7286
sS'liked'
p3447
I7839
sS'headed'
p3448
I1450
sS'cuts'
p3449
I3187
sS'awnings'
p3450
I4440
sS'skips'
p3451
I2183
sS'badminton'
p3452
I2111
sS'spotting'
p3453
I5861
sS'climbers'
p3454
I1054
sS'vessel'
p3455
I4693
sS'outfut'
p3456
I7384
sS'daschund'
p3457
I4522
sS'catwalk'
p3458
I8006
sS'damp'
p3459
I7345
sS'coarse'
p3460
I6386
sS'collected'
p3461
I4198
sS'colorings'
p3462
I5721
sS'instructing'
p3463
I7032
sS'empty'
p3464
I702
sS'dame'
p3465
I5925
sS'partly'
p3466
I2758
sS'packs'
p3467
I6556
sS'waterspouts'
p3468
I5248
sS'wet'
p3469
I273
sS'else'
p3470
I3516
sS'determination'
p3471
I8360
sS'look'
p3472
I204
sS'bikins'
p3473
I6540
sS'spelunker'
p3474
I8338
sS'canadian'
p3475
I5028
sS'rope'
p3476
I210
sS'dusty'
p3477
I1616
sS'while'
p3478
I34
sS'whild'
p3479
I5816
sS'bikina'
p3480
I6453
sS'biking'
p3481
I1026
sS'guide'
p3482
I2888
sS'loop'
p3483
I3245
sS'pack'
p3484
I870
sS'forelegs'
p3485
I6312
sS'overlooked'
p3486
I4954
sS'embroidered'
p3487
I6830
sS'reads'
p3488
I741
sS'wildflowers'
p3489
I3225
sS'smacker'
p3490
I7794
sS'ready'
p3491
I355
sS'firends'
p3492
I6309
sS'communal'
p3493
I7397
sS'fedora'
p3494
I3691
sS'shuttered'
p3495
I8319
sS'makeshift'
p3496
I2530
sS'shag'
p3497
I5234
sS'madly'
p3498
I4549
sS'grand'
p3499
I6808
sS'hallway'
p3500
I1350
sS'used'
p3501
I2526
sS'classmates'
p3502
I5675
sS'overweight'
p3503
I2414
sS'youngsters'
p3504
I3615
sS'uses'
p3505
I1055
sS'cleaning'
p3506
I2145
sS'tufts'
p3507
I6073
sS'older'
p3508
I230
sS'flirts'
p3509
I7282
sS'docked'
p3510
I2799
sS'boe'
p3511
I7669
sS'seawall'
p3512
I5730
sS'clears'
p3513
I2722
sS'yankees'
p3514
I5367
sS'henna'
p3515
I3807
sS'bearer'
p3516
I5067
sS'shivering'
p3517
I6318
sS'supervise'
p3518
I7116
sS'quarters'
p3519
I3730
sS'roasted'
p3520
I6091
sS'love'
p3521
I1956
sS'praying'
p3522
I3196
sS'afro'
p3523
I3675
sS'hazmat'
p3524
I4997
sS'informal'
p3525
I5466
sS'cemetery'
p3526
I6601
sS'exercising'
p3527
I8356
sS'barack'
p3528
I4737
sS'circling'
p3529
I8246
sS'remaining'
p3530
I6485
sS'march'
p3531
I2242
sS'showing'
p3532
I797
sS'enthusiastically'
p3533
I4334
sS'game'
p3534
I166
sS'wings'
p3535
I688
sS'pianist'
p3536
I7717
sS'vests'
p3537
I1242
sS'oncoming'
p3538
I4084
sS'toyota'
p3539
I4236
sS'chairs'
p3540
I573
sS'vibrant'
p3541
I6741
sS'sleigh'
p3542
I2988
sS'weiner'
p3543
I6347
sS'saddled'
p3544
I6924
sS'perked'
p3545
I8105
sS'parade'
p3546
I554
sS'fathers'
p3547
I5051
sS'some'
p3548
I100
sS'spokesmodels'
p3549
I7753
sS'lips'
p3550
I1402
sS'erupts'
p3551
I6902
sS'trendy'
p3552
I5308
sS'debri'
p3553
I7755
sS'dilapidated'
p3554
I8318
sS'minimal'
p3555
I4242
sS'sweating'
p3556
I7543
sS'measures'
p3557
I8240
sS'eating'
p3558
I325
sS'rug'
p3559
I1312
sS'step'
p3560
I983
sS'assists'
p3561
I5462
sS'alleyway'
p3562
I2946
sS'feild'
p3563
I3223
sS'pitchers'
p3564
I4323
sS'shine'
p3565
I3416
sS'faith'
p3566
I5264
sS'handbags'
p3567
I5958
sS'experiences'
p3568
I7539
sS'shiny'
p3569
I2634
sS'block'
p3570
I798
sS'seeing'
p3571
I6432
sS'within'
p3572
I1952
sS'rollerblade'
p3573
I4330
sS'encircling'
p3574
I5247
sS'subaru'
p3575
I7601
sS'fundraising'
p3576
I7748
sS'soundproof'
p3577
I7908
sS'purina'
p3578
I5987
sS'sprawled'
p3579
I4116
sS'rolls'
p3580
I1073
sS'smells'
p3581
I5799
sS'classical'
p3582
I6804
sS'placing'
p3583
I2816
sS'heritage'
p3584
I6619
sS'rummage'
p3585
I5312
sS'himself'
p3586
I926
sS'dips'
p3587
I5069
sS'properly'
p3588
I7101
sS'proped'
p3589
I6481
sS'scubba'
p3590
I5875
sS'collapses'
p3591
I7416
sS'skull'
p3592
I1317
sS'stumbling'
p3593
I6914
sS'sifting'
p3594
I6669
sS'biscut'
p3595
I6896
sS'cautiously'
p3596
I7145
sS'similar'
p3597
I1839
sS'togerther'
p3598
I6094
sS'adults'
p3599
I407
sS'innertube'
p3600
I1322
sS'amphitheater'
p3601
I4891
sS'lavendar'
p3602
I6238
sS'cotton'
p3603
I3247
sS'amounts'
p3604
I4431
sS'accross'
p3605
I4401
sS'nap'
p3606
I1880
sS'electrical'
p3607
I3013
sS'kickboxing'
p3608
I5071
sS'nat'
p3609
I5782
sS'department'
p3610
I3097
sS'aprons'
p3611
I8386
sS'dashes'
p3612
I6076
sS'smiles'
p3613
I262
sS'draw'
p3614
I3909
sS'chello'
p3615
I7729
sS'spectators'
p3616
I644
sS'cigerette'
p3617
I6046
sS'crouching'
p3618
I1180
sS'visits'
p3619
I6588
sS'drag'
p3620
I1853
sS'rested'
p3621
I7912
sS'tundra'
p3622
I8157
sS'smiled'
p3623
I7355
sS'drab'
p3624
I5699
sS'formal'
p3625
I1033
sS'structure'
p3626
I512
sS'zooming'
p3627
I4221
sS'bleached'
p3628
I6609
sS'yuong'
p3629
I5544
sS'depth'
p3630
I8241
sS'berries'
p3631
I5636
sS'underbrush'
p3632
I5374
sS'cheerful'
p3633
I7799
sS'desserts'
p3634
I5366
sS'go'
p3635
I521
sS'gi'
p3636
I6202
sS'compact'
p3637
I5250
sS'aquarium'
p3638
I3785
sS'wizard'
p3639
I8392
sS'mosque'
p3640
I4932
sS'arid'
p3641
I5552
sS'suits'
p3642
I618
sS'shack'
p3643
I3738
sS'backflips'
p3644
I6452
sS'windsurfer'
p3645
I2092
sS'stoney'
p3646
I8202
sS'muzzles'
p3647
I1188
sS'flinging'
p3648
I3853
sS'kitty'
p3649
I2294
sS'wave'
p3650
I182
sS'wavy'
p3651
I4336
sS'muzzled'
p3652
I912
sS'galloping'
p3653
I2351
sS'exits'
p3654
I6963
sS'snowboards'
p3655
I1967
sS'positions'
p3656
I7029
sS'button'
p3657
I2025
sS'michael'
p3658
I2627
sS'comforts'
p3659
I5774
sS'backgroud'
p3660
I4009
sS'picket'
p3661
I3292
sS'temporary'
p3662
I7374
sS'blitz'
p3663
I5157
sS'boots'
p3664
I582
sS'waking'
p3665
I3848
sS'jump'
p3666
I146
sS'noise'
p3667
I7245
sS'muffs'
p3668
I4380
sS'booth'
p3669
I1592
sS'plays'
p3670
I113
sS'paintings'
p3671
I2654
sS'vampire'
p3672
I4758
sS'playy'
p3673
I7438
sS'pumped'
p3674
I6246
sS'poles'
p3675
I689
sS'referees'
p3676
I4474
sS'pristine'
p3677
I4866
sS'focuses'
p3678
I4248
sS'shoreline'
p3679
I1124
sS'meandering'
p3680
I4538
sS'ouside'
p3681
I5808
sS'fishemen'
p3682
I5520
sS'commercial'
p3683
I4119
sS'focused'
p3684
I5751
sS'ponytails'
p3685
I4616
sS'canals'
p3686
I7707
sS'convert'
p3687
I5453
sS'walkman'
p3688
I5208
sS'withdrawing'
p3689
I8467
sS'closeout'
p3690
I6861
sS'repel'
p3691
I5733
sS'products'
p3692
I2916
sS'burbur'
p3693
I5351
sS'examining'
p3694
I2155
sS'felled'
p3695
I5412
sS'win'
p3696
I6160
sS'sparklers'
p3697
I1632
sS'collaborating'
p3698
I5938
sS'wii'
p3699
I6962
sS'singing'
p3700
I824
sS'retriving'
p3701
I6229
sS'cloud'
p3702
I1476
sS'strapped'
p3703
I2013
sS'craw'
p3704
I5857
sS'barrior'
p3705
I5198
sS'crag'
p3706
I4269
sS'crab'
p3707
I3182
sS'vehicle'
p3708
I500
sS'expressway'
p3709
I5389
sS'reflects'
p3710
I7227
sS'cheeks'
p3711
I2447
sS'popped'
p3712
I7742
sS'formally'
p3713
I2331
sS'started'
p3714
I8483
sS'becomes'
p3715
I2904
sS'popper'
p3716
I7248
sS'mitsubishi'
p3717
I6531
sS'crosses'
p3718
I1118
sS'arched'
p3719
I3000
sS'ride'
p3720
I209
sS'donut'
p3721
I3463
sS'arches'
p3722
I6577
sS'archer'
p3723
I5695
sS'crossed'
p3724
I1554
sS'shelton'
p3725
I7872
sS'meet'
p3726
I2087
sS'drops'
p3727
I2716
sS'control'
p3728
I1551
sS'beijing'
p3729
I6362
sS'wharf'
p3730
I3851
sS'admires'
p3731
I3320
sS'crevasse'
p3732
I3239
sS'halloween'
p3733
I1821
sS'ferrett'
p3734
I6600
sS'pulling'
p3735
I392
sS'twome'
p3736
I7341
sS'suds'
p3737
I2985
sS'hit'
p3738
I555
sS'drainpipe'
p3739
I5532
sS'skirt'
p3740
I503
sS'gains'
p3741
I6727
sS'egret'
p3742
I3496
sS'africans'
p3743
I4006
sS'arrangement'
p3744
I4291
sS'located'
p3745
I2198
sS'goucho'
p3746
I6933
sS'oriential'
p3747
I6216
sS'circular'
p3748
I2588
sS'nubby'
p3749
I6301
sS'furiously'
p3750
I6709
sS'farm'
p3751
I1328
sS'rays'
p3752
I5063
sS'fatigue'
p3753
I5381
sS'prance'
p3754
I7896
sS'belongings'
p3755
I1951
sS'spelling'
p3756
I8226
sS'gondoliers'
p3757
I7555
sS'corral'
p3758
I4894
sS'scoop'
p3759
I5061
sS'prays'
p3760
I5897
sS'spaniels'
p3761
I8491
sS'keeling'
p3762
I6579
sS'bathing'
p3763
I368
sS'soggy'
p3764
I4936
sS'avrovulcan.com'
p3765
I5014
sS'competing'
p3766
I948
sS'including'
p3767
I1803
sS'costume'
p3768
I345
sS'cruise'
p3769
I5119
sS'videocameras'
p3770
I6685
sS'accends'
p3771
I5618
sS'broom'
p3772
I2122
sS'brook'
p3773
I4202
sS'filiming'
p3774
I5608
sS'youngster'
p3775
I4484
sS'skater'
p3776
I1012
sS'surrounds'
p3777
I4832
sS'auto'
p3778
I4886
sS'derssed'
p3779
I5530
sS'pins'
p3780
I4038
sS'catcher'
p3781
I1246
sS'placid'
p3782
I4124
sS'hands'
p3783
I219
sS'front'
p3784
I47
sS'hippies'
p3785
I8441
sS'fronr'
p3786
I7598
sS'masters'
p3787
I7333
sS'stonesign'
p3788
I5305
sS'university'
p3789
I1943
sS'slide'
p3790
I189
sS'canooers'
p3791
I6342
sS'crossing'
p3792
I630
sS'shaking'
p3793
I549
sS'upward'
p3794
I2364
sS'carabiner'
p3795
I4654
sS'showering'
p3796
I3548
sS'chunk'
p3797
I2090
sS'multicolored'
p3798
I1215
sS'seesaw'
p3799
I3398
sS'sands'
p3800
I6272
sS'explores'
p3801
I5479
sS'steadies'
p3802
I4105
sS'special'
p3803
I2911
sS'fourwheeler'
p3804
I7756
sS'littered'
p3805
I3394
sS'armor'
p3806
I5274
sS'longhorns'
p3807
I6175
sS'strokes'
p3808
I7435
sS'playground'
p3809
I251
sS'cause'
p3810
I7644
sS'slush'
p3811
I7515
sS'peoople'
p3812
I7801
sS'umbrella'
p3813
I475
sS'cricketer'
p3814
I3750
sS'hopscotch'
p3815
I2843
sS'reacts'
p3816
I3990
sS'darkly'
p3817
I4406
sS'attending'
p3818
I4434
sS'completely'
p3819
I3044
sS'prepairing'
p3820
I6117
sS'x'
I5000
sS'celtics'
p3821
I7325
sS'ridge'
p3822
I1702
sS'princess'
p3823
I4374
sS'farmland'
p3824
I4485
sS'route'
p3825
I3038
sS'florida'
p3826
I2141
sS'times'
p3827
I3082
sS'retrives'
p3828
I8180
sS'stride'
p3829
I3781
sS'wading'
p3830
I646
sS'busines'
p3831
I6860
sS'mad'
p3832
I5955
sS'yong'
p3833
I4451
sS'powerful'
p3834
I6397
sS'flows'
p3835
I4497
sS'stump'
p3836
I1020
sS'bears'
p3837
I2115
sS'squinting'
p3838
I3456
sS'pavillion'
p3839
I6260
sS'adopted'
p3840
I6036
sS'attach'
p3841
I6834
sS'attack'
p3842
I1673
sS'motorcyle'
p3843
I6474
sS'ankle'
p3844
I2355
sS'tourists'
p3845
I2057
sS'snowfield'
p3846
I4917
sS'paved'
p3847
I773
sS'golfers'
p3848
I4133
sS'fuzzy'
p3849
I1751
sS'herself'
p3850
I1299
sS'newlywed'
p3851
I8070
sS'waist'
p3852
I1600
sS'catered'
p3853
I5332
sS'photograph'
p3854
I833
sS'coast'
p3855
I7619
sS'beg'
p3856
I5685
sS'bed'
p3857
I305
sS'bee'
p3858
I1780
sS'firework'
p3859
I6087
sS'exhibit'
p3860
I2182
sS'lightly'
p3861
I6116
sS'spotters'
p3862
I3536
sS'grayish'
p3863
I6535
sS'sundown'
p3864
I3303
sS'portrait'
p3865
I2272
sS'need'
p3866
I4372
sS'border'
p3867
I1977
sS'sings'
p3868
I1370
sS'microphone'
p3869
I574
sS'longeared'
p3870
I6320
sS'sprinkler'
p3871
I670
sS'pursued'
p3872
I2918
sS'sandbox'
p3873
I3640
sS'purchasing'
p3874
I3786
sS'sprinkled'
p3875
I5889
sS'so'
p3876
I1397
sS'detector'
p3877
I5586
sS'visor'
p3878
I3704
sS'mountaintop'
p3879
I1108
sS'medals'
p3880
I2975
sS'blades'
p3881
I5795
sS'lecturer'
p3882
I7125
sS'sewing'
p3883
I2921
sS'camper'
p3884
I4064
sS'plugging'
p3885
I4731
sS'biplane'
p3886
I3938
sS'montana'
p3887
I8004
sS'connected'
p3888
I2837
sS'awe'
p3889
I7391
sS'gallery'
p3890
I1423
sS'cellphone'
p3891
I434
sS'stereo'
p3892
I6602
sS'upset'
p3893
I2763
sS'propels'
p3894
I7044
sS'gesture'
p3895
I2490
sS'emerging'
p3896
I2004
sS'kiddie'
p3897
I1265
sS'indoor'
p3898
I776
sS'crate'
p3899
I3117
sS'fingerpaints'
p3900
I3418
sS'parked'
p3901
I807
sS'soldiers'
p3902
I3753
sS'based'
p3903
I5916
sS'unfinished'
p3904
I2914
sS'tire'
p3905
I427
sS'winner'
p3906
I3404
sS'rash'
p3907
I6100
sS'bases'
p3908
I4042
sS'surfs'
p3909
I896
sS'dodge'
p3910
I7828
sS'peolple'
p3911
I7516
sS'aquos'
p3912
I5221
sS'crumbling'
p3913
I3912
sS'overall'
p3914
I4178
sS'sipping'
p3915
I3495
sS'joint'
p3916
I8419
sS'joins'
p3917
I6200
sS'tbe'
p3918
I7338
sS'gray'
p3919
I303
sS'evident'
p3920
I7713
sS'trucks'
p3921
I2251
sS'gust'
p3922
I7217
sS'gras'
p3923
I4015
sS'motorboat'
p3924
I4025
sS'she'
p3925
I447
sS'tuner'
p3926
I5697
sS'uniformed'
p3927
I1611
sS'widow'
p3928
I5765
sS'spotted'
p3929
I842
sS'hardwood'
p3930
I1743
sS'smooth'
p3931
I2448
sS'exhibt'
p3932
I8254
sS'shake'
p3933
I3481
sS'humans'
p3934
I4265
sS'operates'
p3935
I7127
sS'officials'
p3936
I3709
sS'powder'
p3937
I2895
sS'counry'
p3938
I6274
sS'operated'
p3939
I6188
sS'placed'
p3940
I1981
sS'marshy'
p3941
I4508
sS'tend'
p3942
I5088
sS'unshaven'
p3943
I5979
sS'state'
p3944
I4892
sS'juggle'
p3945
I4853
sS'flickr'
p3946
I7692
sS'pinata'
p3947
I2123
sS'tent'
p3948
I482
sS'attention'
p3949
I1931
sS'buckets'
p3950
I1492
sS'ovals'
p3951
I7167
sS'kicking'
p3952
I547
sS'merry'
p3953
I1264
sS'police'
p3954
I642
sS'thank'
p3955
I6286
sS'hits'
p3956
I716
sS'defense'
p3957
I7041
sS'sniff'
p3958
I3023
sS'aqua'
p3959
I1824
sS'presentations'
p3960
I6689
sS'strains'
p3961
I7275
sS'flocking'
p3962
I7977
sS'jersey'
p3963
I382
sS'spandex'
p3964
I3436
sS'gith'
p3965
I7388
sS'poem'
p3966
I4074
sS'sari'
p3967
I3828
sS'tread'
p3968
I5657
sS'polka'
p3969
I1487
sS'peddal'
p3970
I5373
sS'int'
p3971
I2443
sS'slowly'
p3972
I6018
sS'treat'
p3973
I1447
sS'garter'
p3974
I3178
sS'gatorade'
p3975
I7054
sS'shoulders'
p3976
I872
sS'league'
p3977
I2306
sS'headlamp'
p3978
I4106
sS'schoolgirls'
p3979
I4388
sS'spaniel'
p3980
I3041
sS'controller'
p3981
I3120
sS'kicks'
p3982
I592
sS'smoking'
p3983
I575
sS'digger'
p3984
I5021
sS'novel'
p3985
I6035
sS'chalk'
p3986
I1400
sS'piloting'
p3987
I4813
sS'periods'
p3988
I6958
sS'waterskies'
p3989
I3094
sS'waterskier'
p3990
I1654
sS'examines'
p3991
I3513
sS'surface'
p3992
I587
sS'examined'
p3993
I6519
sS'swinging'
p3994
I324
sS'claps'
p3995
I3442
sS'lambs'
p3996
I2736
sS'conical'
p3997
I8204
sS'capture'
p3998
I6299
sS'sleve'
p3999
I6171
sS'balloon'
p4000
I761
sS'indigo'
p4001
I6857
sS'strange'
p4002
I1586
sS'speaker'
p4003
I4036
sS'gothically'
p4004
I7592
sS'underground'
p4005
I2678
sS'party'
p4006
I648
sS'tapped'
p4007
I7022
sS'unconventional'
p4008
I7885
sS'fireman'
p4009
I2475
sS'eccentric'
p4010
I8065
sS'experimenter'
p4011
I6423
sS'krueger'
p4012
I5836
sS'discouraged'
p4013
I5915
sS'fierce'
p4014
I4573
sS'magician'
p4015
I5425
sS'protector'
p4016
I6161
sS'reflection'
p4017
I1588
sS'i'
I1394
sS'obstacles'
p4018
I2020
sS'well'
p4019
I1091
sS'motorcycling'
p4020
I7510
sS'flexing'
p4021
I4600
sS'energizer'
p4022
I3778
sS'awning'
p4023
I2286
sS'taller'
p4024
I4020
sS'oak'
p4025
I7470
sS'trombone'
p4026
I7086
sS'largley'
p4027
I5473
sS'scrubland'
p4028
I4276
sS'distant'
p4029
I1478
sS'skill'
p4030
I6236
sS'obligatoire'
p4031
I7181
sS'grappling'
p4032
I4294
sS'pursues'
p4033
I6872
sS'recked'
p4034
I6717
sS'barefooted'
p4035
I3167
sS'emblems'
p4036
I5646
sS'extends'
p4037
I2879
sS'riverside'
p4038
I8288
sS'footballer'
p4039
I1843
sS'kick'
p4040
I529
sS'oar'
p4041
I2366
sS'rafter'
p4042
I4309
sS'flashing'
p4043
I4361
sS'crushed'
p4044
I6713
sS'propelled'
p4045
I4172
sS'historic'
p4046
I4903
sS'unseen'
p4047
I2290
sS'bottoms'
p4048
I1901
sS'propeller'
p4049
I8024
sS'intersection'
p4050
I1583
sS'lost'
p4051
I6545
sS'sizes'
p4052
I2986
sS'candy'
p4053
I1545
sS'taping'
p4054
I4798
sS'sized'
p4055
I1071
sS'refugees'
p4056
I7588
sS'shed'
p4057
I1884
sS'anciet'
p4058
I7093
sS'tge'
p4059
I8287
sS'scuffle'
p4060
I3865
sS'library'
p4061
I1917
sS'husk'
p4062
I6607
sS'home'
p4063
I1048
sS'liking'
p4064
I5840
sS'palying'
p4065
I4524
sS'competitor'
p4066
I4058
sS'solicits'
p4067
I8068
sS'demonstrates'
p4068
I3483
sS'grinding'
p4069
I878
sS'competiton'
p4070
I7079
sS'fanny'
p4071
I4833
sS'coated'
p4072
I3552
sS'medieval'
p4073
I2150
sS'reaching'
p4074
I808
sS'goatee'
p4075
I3127
sS'schoolyard'
p4076
I5674
sS'graffited'
p4077
I6879
sS'cleans'
p4078
I4086
sS'nightclub'
p4079
I3012
sS'rodeo'
p4080
I913
sS'beige'
p4081
I657
sS'puppies'
p4082
I660
sS'tongue'
p4083
I386
sS'wedgie'
p4084
I8449
sS'wearfing'
p4085
I7638
sS'washington'
p4086
I2705
sS'mushrooms'
p4087
I5728
sS'congregate'
p4088
I2780
sS'treads'
p4089
I2312
sS'artists'
p4090
I2967
sS'dug'
p4091
I3432
sS'utility'
p4092
I7214
sS'additional'
p4093
I7036
sS'hooding'
p4094
I5959
sS'museum'
p4095
I1658
sS'protectors'
p4096
I5035
sS'eyese'
p4097
I5450
sS'snowploe'
p4098
I6762
sS'notices'
p4099
I8311
sS'exposure'
p4100
I7809
sS'backhand'
p4101
I4565
sS'panhandler'
p4102
I7408
sS'cricket'
p4103
I770
sS'north'
p4104
I4920
sS'stepstool'
p4105
I8162
sS'hr'
p4106
I5847
sS'hp'
p4107
I7898
sS'triangular'
p4108
I4354
sS'fountains'
p4109
I1579
sS'astro'
p4110
I7894
sS'hi'
p4111
I2158
sS'gain'
p4112
I4473
sS'courts'
p4113
I6462
sS'sprinkling'
p4114
I6533
sS'brighly'
p4115
I5377
sS'ear'
p4116
I834
sS'eat'
p4117
I1060
sS'he'
p4118
I243
sS'rappelling'
p4119
I3647
sS'signed'
p4120
I7508
sS'carriage'
p4121
I1309
sS'showgirl'
p4122
I5048
sS'cello'
p4123
I7356
sS'offstage'
p4124
I3687
sS'signer'
p4125
I6702
sS'suggestively'
p4126
I7298
sS'piece'
p4127
I581
sS'display'
p4128
I766
sS'marketplace'
p4129
I2226
sS'pilar'
p4130
I8336
sS'universal'
p4131
I6663
sS'fingertips'
p4132
I7835
sS'kisses'
p4133
I1254
sS'twist'
p4134
I6113
sS'utensils'
p4135
I4306
sS'beats'
p4136
I5105
sS'sheilding'
p4137
I7665
sS'kissed'
p4138
I3458
sS'ipods'
p4139
I6791
sS'balcony'
p4140
I1116
sS'diego'
p4141
I4820
sS'scowls'
p4142
I6825
sS'contest'
p4143
I2578
sS'anticipating'
p4144
I7477
sS'fencing'
p4145
I2097
sS'serveral'
p4146
I7956
sS'dismounts'
p4147
I5968
sS'offensive'
p4148
I5923
sS'starbuck'
p4149
I5405
sS'trekkies'
p4150
I7225
sS'stumps'
p4151
I4158
sS'suspiciously'
p4152
I6296
sS'star'
p4153
I1644
sS'emerges'
p4154
I1424
sS'stay'
p4155
I3166
sS'foil'
p4156
I5670
sS'backstage'
p4157
I6784
sS'acroos'
p4158
I7173
sS'encripted'
p4159
I8472
sS'friends'
p4160
I1171
sS'objest'
p4161
I6005
sS'samsung'
p4162
I4792
sS'portion'
p4163
I4229
sS'spouts'
p4164
I4678
sS'skimming'
p4165
I7746
sS'aided'
p4166
I8231
sS'powdery'
p4167
I8389
sS'knelt'
p4168
I7058
sS'protest'
p4169
I1302
sS'asian'
p4170
I249
sS'sashes'
p4171
I5058
sS'whose'
p4172
I2531
sS'calculate'
p4173
I5322
sS'swam'
p4174
I4664
sS'swan'
p4175
I1305
sS'swetashirts'
p4176
I6022
sS'presents'
p4177
I2767
sS'trousers'
p4178
I4938
sS'teaching'
p4179
I2404
sS'onstage'
p4180
I809
sS'flaggers'
p4181
I8304
sS'fists'
p4182
I4312
sS'cruising'
p4183
I5619
sS'rescue'
p4184
I2430
sS'downstream'
p4185
I5579
sS'guardrail'
p4186
I4662
sS'vase'
p4187
I7548
sS'gover'
p4188
I7858
sS'vast'
p4189
I3876
sS'clothed'
p4190
I2230
sS'convenience'
p4191
I8422
sS'greenish'
p4192
I3242
sS'heading'
p4193
I2784
sS'clothes'
p4194
I340
sS'snowsuits'
p4195
I5812
sS'force'
p4196
I6465
sS'blindfolds'
p4197
I3376
sS'quilt'
p4198
I3059
sS'japanese'
p4199
I1341
sS'hsirt'
p4200
I7260
sS'across'
p4201
I123
sS'sveral'
p4202
I4002
sS'colourful'
p4203
I1767
sS'even'
p4204
I8075
sS'pace'
p4205
I7647
sS'orchestra'
p4206
I5360
sS'bikini'
p4207
I579
sS'asia'
p4208
I4397
sS'ghandi'
p4209
I5515
sS'spoted'
p4210
I8208
sS'lights'
p4211
I825
sS'parachuter'
p4212
I6187
sS'new'
p4213
I1401
sS'net'
p4214
I629
sS'ever'
p4215
I8481
sS'messanger'
p4216
I8349
sS'helmets'
p4217
I831
sS'screams'
p4218
I2468
sS'wakeboard'
p4219
I1591
sS'men'
p4220
I62
sS'met'
p4221
I5881
sS'active'
p4222
I2714
sS'cardboard'
p4223
I1057
sS'104'
p4224
I4530
sS'dry'
p4225
I501
sS'gallopsing'
p4226
I7562
sS'stiffing'
p4227
I5964
sS'buckled'
p4228
I5107
sS'rests'
p4229
I1167
sS'p.'
p4230
I6049
sS'piercing'
p4231
I2675
sS'ignoring'
p4232
I3754
sS'taped'
p4233
I7285
sS'flees'
p4234
I4831
sS'parasailer'
p4235
I3219
sS'rafting'
p4236
I1327
sS'vinyl'
p4237
I8087
sS'eyebrows'
p4238
I2616
sS'fantastic'
p4239
I8244
sS'heeled'
p4240
I6297
sS'facepaint'
p4241
I3538
sS'campaign'
p4242
I4732
sS'slices'
p4243
I4657
sS'county'
p4244
I6259
sS'spays'
p4245
I6302
sS'guests'
p4246
I8071
sS'jackets'
p4247
I560
sS'landscape'
p4248
I749
sS'overhear'
p4249
I7817
sS'reflected'
p4250
I8284
sS'army'
p4251
I1758
sS'ratty'
p4252
I6387
sS'watering'
p4253
I2770
sS'barks'
p4254
I1729
sS'arms'
p4255
I217
sS'overhead'
p4256
I1813
sS'calm'
p4257
I1830
sS'type'
p4258
I1200
sS'tell'
p4259
I5652
sS'calf'
p4260
I2622
sS'peeping'
p4261
I5973
sS'airtime'
p4262
I7013
sS'expose'
p4263
I8130
sS'wars'
p4264
I5476
sS'warm'
p4265
I1198
sS'adult'
p4266
I363
sS'blindfold'
p4267
I5849
sS'shepherds'
p4268
I8426
sS'verdant'
p4269
I5622
sS'room'
p4270
I344
sS'trots'
p4271
I1993
sS'setup'
p4272
I4906
sS'cellos'
p4273
I5358
sS'canvasses'
p4274
I7677
sS'roof'
p4275
I1555
sS'suggestive'
p4276
I7176
sS'rim'
p4277
I7302
sS'foliage'
p4278
I1411
sS'root'
p4279
I4763
sS'lifesavers'
p4280
I7546
sS'squirting'
p4281
I1984
sS'give'
p4282
I1879
sS'laughs'
p4283
I934
sS'sideline'
p4284
I4466
sS'treck'
p4285
I6695
sS'civillians'
p4286
I6061
sS'braids'
p4287
I2446
sS'amazing'
p4288
I5006
sS'ethnicity'
p4289
I7587
sS'butting'
p4290
I6115
sS'scooters'
p4291
I2961
sS'aboard'
p4292
I7997
sS'manuals'
p4293
I7681
sS'abdomen'
p4294
I8021
sS'schoolchildren'
p4295
I4267
sS'waterfront'
p4296
I2863
sS'bagpipers'
p4297
I4988
sS'shirt'
p4298
I35
sS'purchase'
p4299
I3636
sS'attempt'
p4300
I1406
sS'third'
p4301
I822
sS'sillouhette'
p4302
I8370
sS'descends'
p4303
I1783
sS'defaced'
p4304
I6127
sS'checkerboard'
p4305
I7130
sS'goodbye'
p4306
I4266
sS'vfw'
p4307
I7764
sS'operate'
p4308
I5708
sS'athletes'
p4309
I2388
sS'deck'
p4310
I829
sS'hairnet'
p4311
I5726
sS'keyboard'
p4312
I3611
sS'windshield'
p4313
I6591
sS'before'
p4314
I768
sS'scoring'
p4315
I4949
sS'chihuahua'
p4316
I7690
sS'harmonica'
p4317
I4316
sS'personal'
p4318
I7291
sS'soaking'
p4319
I2335
sS'crew'
p4320
I4447
sS'sprays'
p4321
I1791
sS'vigorous'
p4322
I7869
sS'slurps'
p4323
I5284
sS'workout'
p4324
I3118
sS'peoples'
p4325
I4519
sS'caterpillar'
p4326
I5350
sS'parrot'
p4327
I3784
sS'leaned'
p4328
I3809
sS'acoustic'
p4329
I3371
sS'ducking'
p4330
I6011
sS'side'
p4331
I187
sS'bone'
p4332
I1965
sS'mean'
p4333
I2795
sS'adobe'
p4334
I5202
sS'skiny'
p4335
I5535
sS'enthusiasts'
p4336
I5975
sS'skins'
p4337
I4669
sS'taught'
p4338
I4382
sS'navy'
p4339
I1582
sS'aids'
p4340
I5705
sS'enclosure'
p4341
I2319
sS'velvet'
p4342
I3353
sS'open'
p4343
I264
sS'content'
p4344
I7380
sS'patricks'
p4345
I8173
sS'colapsable'
p4346
I6758
sS'roddick'
p4347
I7443
sS'ont'
p4348
I7796
sS'turning'
p4349
I1114
sS'ascending'
p4350
I2126
sS'aboriginal'
p4351
I6920
sS'struggle'
p4352
I2395
sS'hoodie'
p4353
I906
sS'backlit'
p4354
I2142
sS'telescopes'
p4355
I7564
sS'aisle'
p4356
I3955
sS'shaggy'
p4357
I920
sS'starts'
p4358
I2203
sS'signature'
p4359
I7507
sS'boarders'
p4360
I5206
sS'foliaged'
p4361
I5277
sS'grownups'
p4362
I7440
sS'features'
p4363
I4430
sS'hoop'
p4364
I663
sS'walkers'
p4365
I4839
sS'hook'
p4366
I4969
sS'floors'
p4367
I2732
sS'comforter'
p4368
I7170
sS'ditch'
p4369
I2165
sS'hoof'
p4370
I8323
sS'popsicles'
p4371
I7937
sS'hood'
p4372
I1457
sS'hydrant'
p4373
I1882
sS'girls'
p4374
I79
sS'twisted'
p4375
I5020
sS'boating'
p4376
I4587
sS'twenties'
p4377
I5759
sS'hollywood'
p4378
I3612
sS'breezeway'
p4379
I8489
sS'fiveteen'
p4380
I7346
sS'bouncing'
p4381
I1005
sS'gym'
p4382
I677
sS'villages'
p4383
I6634
sS'digs'
p4384
I1625
sS'stoic'
p4385
I7964
sS'somone'
p4386
I6508
sS'cavorts'
p4387
I6205
sS'stocking'
p4388
I4568
sS'begins'
p4389
I1087
sS'distance'
p4390
I396
sS'approachs'
p4391
I8188
sS'bits'
p4392
I4844
sS'preparation'
p4393
I7304
sS'pleadingly'
p4394
I6151
sS'silly'
p4395
I1398
sS'mermaid'
p4396
I8044
sS'mini'
p4397
I1932
sS'sees'
p4398
I3672
sS'palace'
p4399
I5738
sS'bounces'
p4400
I2197
sS'modern'
p4401
I2656
sS'mine'
p4402
I7903
sS'yachts'
p4403
I5620
sS'seed'
p4404
I7757
sS'seen'
p4405
I812
sS'seem'
p4406
I3497
sS'seek'
p4407
I8268
sS'tells'
p4408
I7098
sS'moniter'
p4409
I6986
sS'chest'
p4410
I1047
sS'chess'
p4411
I2969
sS'panties'
p4412
I5240
sS'quarterback'
p4413
I1942
sS'flatscreen'
p4414
I7123
sS'wrists'
p4415
I3958
sS'buggies'
p4416
I5440
sS'memorabilia'
p4417
I7395
sS'grins'
p4418
I2382
sS'bulldogs'
p4419
I4548
sS'assisting'
p4420
I3156
sS'doo'
p4421
I5392
sS'consumed'
p4422
I4400
sS'nighttime'
p4423
I1710
sS'dog'
p4424
I8
sS'breathes'
p4425
I6424
sS'doe'
p4426
I7169
sS'competitors'
p4427
I6837
sS'points'
p4428
I636
sS'hamming'
p4429
I7902
sS'pointy'
p4430
I2373
sS'consumer'
p4431
I8479
sS'annoyed'
p4432
I6390
sS'dot'
p4433
I1683
sS'aquatic'
p4434
I7430
sS'visitor'
p4435
I7071
sS'attempts'
p4436
I649
sS'winces'
p4437
I7737
sS'stepping'
p4438
I2137
sS'thirds'
p4439
I7257
sS'judges'
p4440
I5092
sS'greenbay'
p4441
I5509
sS'representing'
p4442
I6203
sS'excercise'
p4443
I6256
sS'folded'
p4444
I1982
sS'folks'
p4445
I7157
sS'scrubbing'
p4446
I4232
sS'wearing'
p4447
I20
sS'tiles'
p4448
I3725
sS'colorful'
p4449
I236
sS'stop'
p4450
I885
sS'heavyset'
p4451
I4208
sS'watermelon'
p4452
I2210
sS'tiled'
p4453
I1974
sS'reenactors'
p4454
I8374
sS'bat'
p4455
I453
sS'bar'
p4456
I402
sS'17'
p4457
I5935
sS'fields'
p4458
I2486
sS'bay'
p4459
I1529
sS'bag'
p4460
I338
sS'bad'
p4461
I6932
sS'discs'
p4462
I5986
sS'cower'
p4463
I7663
sS'ban'
p4464
I6405
sS'ears'
p4465
I557
sS'playstation'
p4466
I5545
sS'rockstar'
p4467
I4684
sS'fluffy'
p4468
I590
sS'subject'
p4469
I4511
sS'pebbles'
p4470
I3666
sS'coats'
p4471
I991
sS'08'
p4472
I6611
sS'sail'
p4473
I1496
sS'shaved'
p4474
I1518
sS'artificial'
p4475
I1861
sS'wetsuit'
p4476
I494
sS'olympics'
p4477
I3855
sS'pets'
p4478
I2218
sS'sorts'
p4479
I3575
sS'cosplayers'
p4480
I7922
sS'wears'
p4481
I376
sS'lotion'
p4482
I8260
sS'upfront'
p4483
I7726
sS'modeling'
p4484
I8005
sS'picking'
p4485
I1371
sS'mucky'
p4486
I5616
sS'maneuvers'
p4487
I2491
sS'swoops'
p4488
I3364
sS'conch'
p4489
I6517
sS'against'
p4490
I254
sS'prefabricated'
p4491
I5295
sS'bookcase'
p4492
I5558
sS'confronted'
p4493
I5928
sS'eastpak'
p4494
I4696
sS'uno'
p4495
I3375
sS'bison'
p4496
I6560
sS'motioning'
p4497
I6840
sS'winnie'
p4498
I3268
sS'snakeskin'
p4499
I5197
sS'coconut'
p4500
I7421
sS'ollies'
p4501
I3284
sS'height'
p4502
I2717
sS'lanterns'
p4503
I2960
sS'loaded'
p4504
I3622
sS'buddist'
p4505
I4455
sS'headwrap'
p4506
I4861
sS'targeting'
p4507
I7645
sS'puts'
p4508
I917
sS'three'
p4509
I46
sS'tiny'
p4510
I1759
sS'threw'
p4511
I2779
sS'website'
p4512
I4849
sS'deeper'
p4513
I7805
sS'mushroom'
p4514
I6106
sS'turned'
p4515
I1269
sS'sunshine'
p4516
I3460
sS'piste'
p4517
I4848
sS'jewels'
p4518
I6495
sS'exception'
p4519
I6567
sS'shovels'
p4520
I2212
sS'tank'
p4521
I515
sS'reddish'
p4522
I2189
sS'near'
p4523
I66
sS'melted'
p4524
I3642
sS'neat'
p4525
I6816
sS'balance'
p4526
I1681
sS'smoky'
p4527
I6844
sS'midjump'
p4528
I8209
sS'seven'
p4529
I956
sS'cane'
p4530
I2877
sS'mexico'
p4531
I4775
sS'is'
p4532
I6
sS'sushi'
p4533
I6355
sS'it'
p4534
I148
sS'sequined'
p4535
I2987
sS'cans'
p4536
I1869
sS'in'
p4537
I3
sS'seattle'
p4538
I2200
sS'mouse'
p4539
I1900
sS'id'
p4540
I7070
sS'if'
p4541
I2502
sS'grown'
p4542
I3273
sS'bottles'
p4543
I1819
sS'baskers'
p4544
I7025
sS'make'
p4545
I594
sS'donning'
p4546
I4421
sS'bottled'
p4547
I4110
sS'belly'
p4548
I1627
sS'vegetable'
p4549
I7874
sS'shoveling'
p4550
I1623
sS'sidelines'
p4551
I1940
sS'confronting'
p4552
I7129
sS'grows'
p4553
I5683
sS'entitled'
p4554
I4417
sS'bearded'
p4555
I742
sS'scarfs'
p4556
I4858
sS'hulahoop'
p4557
I5735
sS'kit'
p4558
I4592
sS'renaissance'
p4559
I3447
sS'waterfall'
p4560
I476
sS'dark'
p4561
I201
sS'opportunity'
p4562
I8302
sS'kid'
p4563
I272
sS'butter'
p4564
I2965
sS'romp'
p4565
I2190
sS'programs'
p4566
I5432
sS'picure'
p4567
I6956
sS'smokes'
p4568
I1186
sS'bedspread'
p4569
I3344
sS'jersay'
p4570
I5943
sS'practices'
p4571
I1864
sS'flops'
p4572
I1351
sS'pooping'
p4573
I6315
sS'left'
p4574
I457
sS'just'
p4575
I732
sS'sentence'
p4576
I6750
sS'sporting'
p4577
I1795
sS'longish'
p4578
I7512
sS'fighters'
p4579
I4037
sS'human'
p4580
I1542
sS'bandmates'
p4581
I7320
sS'tattooed'
p4582
I1742
sS'yet'
p4583
I6142
sS'sunflower'
p4584
I5199
sS'mouthguards'
p4585
I4414
sS'agile'
p4586
I5194
sS'character'
p4587
I4815
sS'contestant'
p4588
I7810
sS'save'
p4589
I4852
sS'egytian'
p4590
I5627
sS'dirtbikers'
p4591
I4842
sS'driftrood'
p4592
I8477
sS'background'
p4593
I101
sS'forested'
p4594
I2083
sS'depicts'
p4595
I6059
sS'hatchback'
p4596
I7932
sS'shoulder'
p4597
I736
sS'picutre'
p4598
I6997
sS'nude'
p4599
I2809
sS'performing'
p4600
I256
sS'zombies'
p4601
I6582
sS'pillar'
p4602
I2856
sS'vaulter'
p4603
I6250
sS'powerlines'
p4604
I8430
sS'somehow'
p4605
I7897
sS'elderly'
p4606
I479
sS'scrimmage'
p4607
I4472
sS'poolside'
p4608
I4122
sS'dear'
p4609
I4915
sS'repelling'
p4610
I3165
sS'tripped'
p4611
I6670
sS'ignore'
p4612
I6990
sS'dense'
p4613
I7103
sS'trace'
p4614
I6044
sS'floaters'
p4615
I6543
sS'carts'
p4616
I1721
sS'daytime'
p4617
I3596
sS'arguing'
p4618
I5327
sS'bullfight'
p4619
I7568
sS'skateboarder'
p4620
I183
sS'uplifted'
p4621
I8171
sS'burn'
p4622
I3360
sS'squeamish'
p4623
I5500
sS'firemen'
p4624
I3880
sS'confrontation'
p4625
I4909
sS'keeper'
p4626
I3594
sS'nametags'
p4627
I7185
sS'super'
p4628
I3729
sS'resaurant'
p4629
I7741
sS'dunking'
p4630
I2636
sS'yelling'
p4631
I2038
sS'magazine'
p4632
I2215
sS'afternoon'
p4633
I2618
sS'seabird'
p4634
I8055
sS'wintertime'
p4635
I4091
sS'ralley'
p4636
I4239
sS'thinner'
p4637
I7037
sS'tinkerbell'
p4638
I2978
sS'crochet'
p4639
I7686
sS'rearview'
p4640
I5443
sS'down'
p4641
I36
sS'lies'
p4642
I772
sS'carving'
p4643
I2432
sS'cascades'
p4644
I4498
sS'frightened'
p4645
I4160
sS'cones'
p4646
I1224
sS'weathered'
p4647
I4337
sS'ruggers'
p4648
I6430
sS'shortstop'
p4649
I7574
sS'streght'
p4650
I8078
sS'flying'
p4651
I278
sS'rottweiller'
p4652
I6327
sS'fork'
p4653
I4307
sS'offering'
p4654
I2453
sS'batman'
p4655
I1768
sS'sweatsuit'
p4656
I4412
sS'fireworks'
p4657
I1570
sS'landing'
p4658
I1029
sS'garments'
p4659
I5565
sS'diaper'
p4660
I2476
sS'fort'
p4661
I3629
sS'mouthed'
p4662
I2749
sS'lilies'
p4663
I8104
sS'pavilion'
p4664
I6459
sS'parasurfs'
p4665
I6687
sS'hikers'
p4666
I900
sS'attached'
p4667
I675
sS'bounds'
p4668
I1426
sS'centipede'
p4669
I3047
sS'zara'
p4670
I3832
sS'lettering'
p4671
I7168
sS'attaches'
p4672
I6376
sS'shin'
p4673
I8043
sS'sticks'
p4674
I606
sS'classic'
p4675
I2584
sS'toss'
p4676
I2359
sS'carreis'
p4677
I7533
sS'lingers'
p4678
I8431
sS'covers'
p4679
I1660
sS'drive'
p4680
I1451
sS'fashioned'
p4681
I2134
sS'floating'
p4682
I846
sS'widows'
p4683
I7478
sS'shit'
p4684
I4419
sS'vista'
p4685
I4742
sS'leafless'
p4686
I2824
sS'clings'
p4687
I2205
sS'handed'
p4688
I2044
sS'dandylions'
p4689
I8206
sS'digital'
p4690
I2357
sS'warehouse'
p4691
I3966
sS'ribbons'
p4692
I1775
sS'fronmt'
p4693
I7444
sS'broen'
p4694
I5851
sS'sling'
p4695
I2907
sS'handicap'
p4696
I4358
sS'utilities'
p4697
I5572
sS'stockings'
p4698
I7970
sS'fell'
p4699
I2690
sS'jacked'
p4700
I2752
sS'happening'
p4701
I3568
sS'potato'
p4702
I2088
sS'jacket'
p4703
I95
sS'teeth'
p4704
I758
sS'themed'
p4705
I2408
sS'skis'
p4706
I488
sS'skit'
p4707
I6772
sS'skii'
p4708
I7238
sS'manager'
p4709
I5947
sS'skin'
p4710
I3820
sS'mill'
p4711
I4639
sS'bomber'
p4712
I5898
sS'milk'
p4713
I2240
sS'anticipation'
p4714
I7583
sS'summersault'
p4715
I7689
sS'father'
p4716
I1149
sS'prom'
p4717
I3922
sS'perfoms'
p4718
I5748
sS'reptiles'
p4719
I5438
sS'marks'
p4720
I3341
sS'sportwoman'
p4721
I8009
sS'me'
p4722
I7529
sS'string'
p4723
I1045
sS'streetpole'
p4724
I6276
sS'dinghy'
p4725
I3779
sS'defying'
p4726
I7401
sS'nussle'
p4727
I7490
sS'diveboard'
p4728
I5266
sS'bartender'
p4729
I8176
sS'dim'
p4730
I2511
sS'did'
p4731
I5316
sS'dig'
p4732
I3181
sS'dizzy'
p4733
I8091
sS'democrat'
p4734
I6615
sS'outise'
p4735
I7952
sS'bikers'
p4736
I961
sS'item'
p4737
I1271
sS'brownish'
p4738
I2728
sS'dip'
p4739
I4174
sS'round'
p4740
I726
sS'drawings'
p4741
I4244
sS'shave'
p4742
I8252
sS'olympic'
p4743
I5097
sS'dealing'
p4744
I8221
sS'onrushing'
p4745
I6649
sS'literature'
p4746
I8085
sS'draping'
p4747
I5843
sS'run'
p4748
I164
sS'skiiers'
p4749
I1975
sS'bunchh'
p4750
I7661
sS'swimcap'
p4751
I7104
sS'vandalized'
p4752
I7901
sS'international'
p4753
I4943
sS'sweaters'
p4754
I1704
sS'bookshelves'
p4755
I7494
sS'filled'
p4756
I686
sS'growls'
p4757
I3664
sS'transportation'
p4758
I2001
sS'mussels'
p4759
I7671
sS'makeup'
p4760
I1062
sS'french'
p4761
I2343
sS'lakes'
p4762
I6760
sS'frosting'
p4763
I5155
sS'wait'
p4764
I775
sS'box'
p4765
I600
sS'boy'
p4766
I15
sS'plantains'
p4767
I7479
sS'battling'
p4768
I3049
sS'shift'
p4769
I5998
sS'bow'
p4770
I1241
sS'thrashed'
p4771
I5625
sS'boa'
p4772
I2825
sS'nylon'
p4773
I4153
sS'bruised'
p4774
I5556
sS'massage'
p4775
I2873
sS'bog'
p4776
I8179
sS'teenage'
p4777
I544
sS'finishes'
p4778
I8335
sS'kayak'
p4779
I458
sS'flexibility'
p4780
I7806
sS'lamppost'
p4781
I7615
sS'anouther'
p4782
I5181
sS'everybody'
p4783
I6583
sS'lockers'
p4784
I2638
sS'stoops'
p4785
I4383
sS'thre'
p4786
I5796
sS'perm'
p4787
I7175
sS'creamy'
p4788
I8471
sS'somersault'
p4789
I2778
sS'creams'
p4790
I6753
sS'checkout'
p4791
I6154
sS'facepaintings'
p4792
I7926
sS'sharing'
p4793
I2181
sS'freestyle'
p4794
I4619
sS'mouthing'
p4795
I4681
sS'downtown'
p4796
I2841
sS'tandem'
p4797
I3617
sS'effort'
p4798
I3812
sS'bushels'
p4799
I5911
sS'fly'
p4800
I847
sS'walled'
p4801
I7432
sS'ponchos'
p4802
I3874
sS'avoiding'
p4803
I4470
sS'reviews'
p4804
I6016
sS'soup'
p4805
I4902
sS'sour'
p4806
I8249
sS'drags'
p4807
I4161
sS'making'
p4808
I309
sS'windboard'
p4809
I7780
sS'bites'
p4810
I957
sS'crazy'
p4811
I4139
sS'plaza'
p4812
I1488
sS'grouchy'
p4813
I6471
sS'winston'
p4814
I7819
sS'confused'
p4815
I3887
sS'groucho'
p4816
I3154
sS'drapped'
p4817
I3501
sS'underneat'
p4818
I7674
sS'pink'
p4819
I89
sS'arbor'
p4820
I5214
sS'necklaces'
p4821
I2903
sS'guiutarist'
p4822
I5595
sS'ping'
p4823
I5536
sS'pine'
p4824
I1169
sS'chemical'
p4825
I8045
sS'sword'
p4826
I1333
sS'skates'
p4827
I800
sS'tile'
p4828
I1871
sS'pathway'
p4829
I1712
sS'loaves'
p4830
I5839
sS'map'
p4831
I2500
sS'mat'
p4832
I1194
sS'drak'
p4833
I6745
sS'designed'
p4834
I4141
sS'mocks'
p4835
I5678
sS'guys'
p4836
I505
sS'man'
p4837
I10
sS'scrambling'
p4838
I3133
sS'neck'
p4839
I714
sS'nech'
p4840
I8128
sS'tale'
p4841
I6520
sS'permed'
p4842
I4918
sS'african'
p4843
I666
sS'basket'
p4844
I969
sS'tall'
p4845
I321
sS'talk'
p4846
I819
sS'cute'
p4847
I2095
sS'dojo'
p4848
I6014
sS'shoes'
p4849
I454
sS'longsleeve'
p4850
I4462
sS'gradual'
p4851
I8098
sS'pointed'
p4852
I1641
sS'shaky'
p4853
I8475
sS'wishing'
p4854
I8372
sS'pillowcase'
p4855
I6498
sS'argues'
p4856
I6575
sS'terrace'
p4857
I3025
sS'pitch'
p4858
I1463
sS'peterson'
p4859
I5128
sS'pointer'
p4860
I4615
sS'group'
p4861
I57
sS'monitor'
p4862
I2958
sS'interesting'
p4863
I2016
sS'yorkshire'
p4864
I4188
sS'coaching'
p4865
I3203
sS'snorkeling'
p4866
I5874
sS'mail'
p4867
I7815
sS'main'
p4868
I2838
sS'mommy'
p4869
I8025
sS'texas'
p4870
I5421
sS'tucked'
p4871
I5191
sS'views'
p4872
I3452
sS'killer'
p4873
I6664
sS'unspooled'
p4874
I6416
sS'sooner'
p4875
I3202
sS'lunch'
p4876
I2814
sS'touching'
p4877
I1095
sS'markings'
p4878
I1376
sS'safari'
p4879
I3773
sS'binky'
p4880
I5227
sS'guidewire'
p4881
I7137
sS'settings'
p4882
I5785
sS'arrows'
p4883
I5255
sS'pinball'
p4884
I8484
sS'rock'
p4885
I84
sS'hardhat'
p4886
I1546
sS'beack'
p4887
I5263
sS'girt'
p4888
I5954
sS'elephants'
p4889
I3366
sS'shews'
p4890
I6401
sS'signage'
p4891
I7221
sS'girl'
p4892
I18
sS'enforcment'
p4893
I7678
sS'spiking'
p4894
I5328
sS'canada'
p4895
I5075
sS'living'
p4896
I1289
sS'jackson'
p4897
I2628
sS'3rd'
p4898
I4975
sS'midfield'
p4899
I7931
sS'emerged'
p4900
I6429
sS'pizzeria'
p4901
I5403
sS'goth'
p4902
I3475
sS'monster'
p4903
I2227
sS'sideways'
p4904
I1356
sS'mechanisms'
p4905
I6708
sS'onsie'
p4906
I6892
sS'jaywalk'
p4907
I8354
sS'headband'
p4908
I709
sS'advance'
p4909
I5930
sS'underwear'
p4910
I1726
sS'jaket'
p4911
I5886
sS'language'
p4912
I3808
sS'waiter'
p4913
I2974
sS'fribee'
p4914
I5353
sS'headphones'
p4915
I792
sS'thing'
p4916
I4149
sS'funky'
p4917
I6458
sS'mesh'
p4918
I3051
sS'first'
p4919
I1202
sS'exotic'
p4920
I4626
sS'cheese'
p4921
I5110
sS'dwelling'
p4922
I4873
sS'fleeing'
p4923
I6706
sS'question'
p4924
I7538
sS'crib'
p4925
I3444
sS'americans'
p4926
I3712
sS'long'
p4927
I185
sS'suspended'
p4928
I1061
sS'carry'
p4929
I1296
sS'farris'
p4930
I8417
sS'little'
p4931
I39
sS'murky'
p4932
I1532
sS'participates'
p4933
I2416
sS'plains'
p4934
I3491
sS'tuxes'
p4935
I4812
sS'scull'
p4936
I8256
sS'fiery'
p4937
I3890
sS'speaking'
p4938
I1247
sS'eyes'
p4939
I450
sS'watersports'
p4940
I6723
sS'streaked'
p4941
I3028
sS'crevice'
p4942
I3600
sS'eyed'
p4943
I2040
sS'butt'
p4944
I2328
sS'blurred'
p4945
I1949
sS'11'
p4946
I4709
sS'10'
p4947
I7957
sS'13'
p4948
I3380
sS'12'
p4949
I3009
sS'sailing'
p4950
I2199
sS'19'
p4951
I3715
sS'scraping'
p4952
I6514
sS'victorian'
p4953
I4796
sS'protected'
p4954
I7205
sS'venture'
p4955
I6899
sS'were'
p4956
I3679
sS'gigantic'
p4957
I5957
sS'strolls'
p4958
I3837
sS'cattails'
p4959
I4912
sS'tractor'
p4960
I1862
sS'egde'
p4961
I7836
sS'gathering'
p4962
I1220
sS'lick'
p4963
I4459
sS'stubby'
p4964
I4461
sS'winding'
p4965
I2707
sS'pastry'
p4966
I4633
sS'impersonators'
p4967
I7969
sS'occupied'
p4968
I3801
sS'speakers'
p4969
I6557
sS'hooded'
p4970
I884
sS'shocked'
p4971
I3873
sS'squad'
p4972
I4779
sS'interior'
p4973
I4636
sS'performance'
p4974
I2059
sS'collapsed'
p4975
I6281
sS'facefirst'
p4976
I6818
sS'ultimate'
p4977
I3599
sS'skinned'
p4978
I962
sS'pain'
p4979
I2947
sS'pail'
p4980
I2394
sS'track'
p4981
I193
sS'zigzag'
p4982
I3696
sS'assault'
p4983
I5819
sS'sheets'
p4984
I2665
sS'pair'
p4985
I1382
sS'tugging'
p4986
I1612
sS'queens'
p4987
I7935
sS'beachfront'
p4988
I6132
sS'gyro'
p4989
I4069
sS'spectate'
p4990
I7335
sS'grassland'
p4991
I7629
sS'gound'
p4992
I6473
sS'trotted'
p4993
I6770
sS'shop'
p4994
I733
sS'shot'
p4995
I622
sS'show'
p4996
I652
sS'contemporary'
p4997
I7984
sS'grayhound'
p4998
I4379
sS'shoe'
p4999
I1444
sS'threshold'
p5000
I8269
sS'corner'
p5001
I627
sS'goers'
p5002
I6694
sS'curled'
p5003
I3175
sS'fend'
p5004
I6573
sS'dice'
p5005
I5468
sS'cheeseburger'
p5006
I7059
sS'behind'
p5007
I99
sS'feamle'
p5008
I8362
sS'black'
p5009
I14
sS'shutters'
p5010
I4803
sS'get'
p5011
I403
sS'midriff'
p5012
I8022
sS'spraying'
p5013
I1237
sS'nearly'
p5014
I2727
sS'enjoys'
p5015
I904
sS'lassos'
p5016
I6553
sS'lilypads'
p5017
I6136
sS'frolicking'
p5018
I3798
sS'median'
p5019
I7772
sS'morning'
p5020
I2467
sS'miles'
p5021
I5587
sS'source'
p5022
I3446
sS'london'
p5023
I6599
sS'milling'
p5024
I7458
sS'pebbly'
p5025
I8299
sS'seas'
p5026
I6746
sS'seat'
p5027
I700
sS'starlet'
p5028
I6643
sS'seal'
p5029
I2971
sS'pebble'
p5030
I3665
sS'histerically'
p5031
I8278
sS'puma'
p5032
I4444
sS'camping'
p5033
I1665
sS'ornament'
p5034
I4067
sS'advertizing'
p5035
I7192
sS'behinf'
p5036
I8014
sS'behing'
p5037
I6178
sS'pump'
p5038
I4409
sS'downriver'
p5039
I5448
sS'chews'
p5040
I1266
sS'reading'
p5041
I436
sS'checks'
p5042
I2053
sS'oversized'
p5043
I2887
sS'parent'
p5044
I2734
sS'slingshot'
p5045
I7697
sS'crucified'
p5046
I7944
sS'pillared'
p5047
I6440
sS'lopes'
p5048
I6833
sS'tub'
p5049
I1666
sS'waterful'
p5050
I6344
sS'tug'
p5051
I764
sS'waing'
p5052
I7088
sS'rugby'
p5053
I601
sS'blasts'
p5054
I6631
sS'multicolor'
p5055
I1785
sS'patrons'
p5056
I4115
sS'spare'
p5057
I5821
sS'enviorment'
p5058
I5732
sS'among'
p5059
I738
sS'stretches'
p5060
I1697
sS'stretcher'
p5061
I4998
sS'saxaphones'
p5062
I6563
sS'maintained'
p5063
I5907
sS'iceburg'
p5064
I8040
sS'stretched'
p5065
I1797
sS'pacifier'
p5066
I1587
sS'associated'
p5067
I7321
sS'gauntlet'
p5068
I7191
sS'grond'
p5069
I8239
sS'arts'
p5070
I1043
sS'kickboxer'
p5071
I5502
sS'undershirt'
p5072
I4552
sS'mark'
p5073
I3067
sS'mart'
p5074
I5117
sS'workshop'
p5075
I4500
sS'groupe'
p5076
I6121
sS'marx'
p5077
I2813
sS'tankini'
p5078
I6226
sS'shopping'
p5079
I442
sS'graveyard'
p5080
I7767
sS'offered'
p5081
I8215
sS'codpiece'
p5082
I6033
sS'laptops'
p5083
I3349
sS'whips'
p5084
I4647
sS'dramatic'
p5085
I5217
sS'wake'
p5086
I2696
sS'bmw'
p5087
I3829
sS'bmx'
p5088
I516
sS'those'
p5089
I3112
sS'sound'
p5090
I2811
sS'stacked'
p5091
I4571
sS'hdr'
p5092
I7654
sS'romping'
p5093
I7813
sS"n't"
p5094
I3698
sS'coca'
p5095
I7329
sS'investigating'
p5096
I5793
sS'bathe'
p5097
I4026
sS'bathrooms'
p5098
I4736
sS'shreds'
p5099
I5878
sS'rubbing'
p5100
I2834
sS'them'
p5101
I205
sS'sleeping'
p5102
I619
sS'middle'
p5103
I296
sS'pressing'
p5104
I7133
sS'ferns'
p5105
I4281
sS'restroom'
p5106
I7549
sS'everyday'
p5107
I6621
sS'bags'
p5108
I504
sS'different'
p5109
I740
sS'paw'
p5110
I1668
sS'pay'
p5111
I6898
sS'bluejean'
p5112
I5797
sS'woodland'
p5113
I1231
sS'tour'
p5114
I4047
sS'same'
p5115
I632
sS'wizards'
p5116
I5762
sS'speech'
p5117
I3743
sS'greyhounds'
p5118
I801
sS'struggling'
p5119
I3216
sS'halfpipe'
p5120
I6950
sS'pan'
p5121
I1852
sS'exhaust'
p5122
I3889
sS'extended'
p5123
I2036
sS'assist'
p5124
I3572
sS'seagulls'
p5125
I1855
sS'companion'
p5126
I4193
sS'running'
p5127
I31
sS'geishas'
p5128
I6759
sS'climbing'
p5129
I118
sS'weave'
p5130
I6445
sS'layup'
p5131
I7620
sS'drain'
p5132
I2523
sS'roughly'
p5133
I3815
sS'conoe'
p5134
I5538
sS'bicyclists'
p5135
I1143
sS'bottle'
p5136
I548
sS'lakefront'
p5137
I5706
sS'amazed'
p5138
I6270
sS'parody'
p5139
I5245
sS'gates'
p5140
I3860
sS'outdoor'
p5141
I337
sS'money'
p5142
I1377
sS'adjustments'
p5143
I7240
sS'gated'
p5144
I2831
sS'grouped'
p5145
I5848
sS'mcdonald'
p5146
I6841
sS'pups'
p5147
I5056
sS'remember'
p5148
I8217
sS'beagle'
p5149
I1565
sS'backround'
p5150
I8341
sS'pile'
p5151
I519
sS'4'
I1297
sS'grating'
p5152
I5531
sS'carring'
p5153
I2694
sS'grip'
p5154
I5844
sS'docks'
p5155
I5324
sS'mop'
p5156
I3921
sS'chainsaw'
p5157
I2431
sS'grid'
p5158
I5869
sS'mom'
p5159
I1746
sS'railroad'
p5160
I1358
sS'aiming'
p5161
I2008
sS'blankets'
p5162
I3173
sS'grin'
p5163
I3439
sS'vending'
p5164
I3258
sS'dingo'
p5165
I5492
sS'serves'
p5166
I3546
sS'facing'
p5167
I655
sS'audience'
p5168
I848
sS'either'
p5169
I1597
sS'drainage'
p5170
I4486
sS'served'
p5171
I3962
sS'escalators'
p5172
I7361
sS'decoy'
p5173
I7712
sS'doll'
p5174
I2009
sS'ascend'
p5175
I7789
sS'meanders'
p5176
I5375
sS'wearhing'
p5177
I5892
sS'images'
p5178
I3651
sS'pasture'
p5179
I2754
sS'spash'
p5180
I8310
sS'snoring'
p5181
I7057
sS'bluetooth'
p5182
I7429
sS'matching'
p5183
I838
sS'attampts'
p5184
I8451
sS'drap'
p5185
I6922
sS'outs'
p5186
I4528
sS'drenched'
p5187
I2538
sS'tiretracks'
p5188
I7128
sS'expressing'
p5189
I6149
sS'crampons'
p5190
I5161
sS'knife'
p5191
I2065
sS'measuring'
p5192
I6712
sS'profusely'
p5193
I6349
sS'raincoat'
p5194
I2068
sS'fitness'
p5195
I6255
sS'unusual'
p5196
I2223
sS'broken'
p5197
I1552
sS'drums'
p5198
I1263
sS'shotput'
p5199
I7383
sS'preoccupied'
p5200
I6943
sS'smear'
p5201
I5145
sS'fringe'
p5202
I5093
sS'pockets'
p5203
I4168
sS'toothpaste'
p5204
I5855
sS'mixed'
p5205
I3744
sS'road'
p5206
I150
sS'quietly'
p5207
I3658
sS'lands'
p5208
I1417
sS'whites'
p5209
I6904
sS'spreading'
p5210
I3302
sS'harness'
p5211
I491
sS'strip'
p5212
I1197
sS'attaching'
p5213
I4655
sS'paraphernalia'
p5214
I6915
sS'earphones'
p5215
I2478
sS'redbull'
p5216
I3799
sS'pretends'
p5217
I3119
sS'chats'
p5218
I3530
sS'enough'
p5219
I5064
sS'buggy'
p5220
I2563
sS'tripod'
p5221
I1626
sS'wiping'
p5222
I3901
sS'bookstore'
p5223
I2350
sS'hurricanes'
p5224
I6909
sS'walkway'
p5225
I1040
sS'overhangs'
p5226
I6068
sS'wuth'
p5227
I5914
sS'flamboyant'
p5228
I3425
sS'arranged'
p5229
I5660
sS'romantic'
p5230
I7015
sS'drills'
p5231
I8140
sS'strawberry'
p5232
I2912
sS'peeking'
p5233
I2096
sS'netting'
p5234
I6230
sS'suitcase'
p5235
I3264
sS'railed'
p5236
I3936
sS'planeta'
p5237
I4897
sS'videos'
p5238
I5559
sS'rapids'
p5239
I784
sS'swinsuit'
p5240
I7994
sS'deer'
p5241
I1497
sS'deep'
p5242
I465
sS'fellow'
p5243
I1837
sS'examine'
p5244
I1881
sS'file'
p5245
I3168
sS'hound'
p5246
I2034
sS'cables'
p5247
I6352
sS'film'
p5248
I3171
sS'fill'
p5249
I3643
sS'again'
p5250
I4780
sS'pensive'
p5251
I4754
sS'fiels'
p5252
I6242
sS'pamphlets'
p5253
I7643
sS'personnel'
p5254
I3916
sS'drivers'
p5255
I3831
sS'tripods'
p5256
I6928
sS'field'
p5257
I51
sS'lafayette'
p5258
I7660
sS'rollerblading'
p5259
I1017
sS'relection'
p5260
I5800
sS'outfield'
p5261
I8454
sS'lapel'
p5262
I7658
sS'students'
p5263
I1217
sS'twho'
p5264
I7313
sS'tackle'
p5265
I974
sS'dunked'
p5266
I8405
sS'decorated'
p5267
I994
sS'awkwardly'
p5268
I3866
sS'remote'
p5269
I3564
sS'casts'
p5270
I1825
sS'wets'
p5271
I4290
sS'collegiate'
p5272
I5919
sS'landfill'
p5273
I6700
sS'snowpile'
p5274
I6803
sS'husks'
p5275
I4545
sS'midstride'
p5276
I6403
sS'god'
p5277
I3984
sS'husky'
p5278
I1728
sS'starting'
p5279
I1490
sS'growling'
p5280
I1650
sS'suns'
p5281
I7802
sS'suburban'
p5282
I2091
sS'dollar'
p5283
I2379
sS'meetinghall'
p5284
I7503
sS'talks'
p5285
I694
sS'fixtures'
p5286
I5285
sS'lawnchair'
p5287
I6233
sS'children'
p5288
I61
sS'preserves'
p5289
I6605
sS'shredding'
p5290
I6946
sS'enjoying'
p5291
I946
sS'puffs'
p5292
I4415
sS'stiped'
p5293
I4558
sS'returning'
p5294
I3193
sS'puffy'
p5295
I2295
sS'fall'
p5296
I796
sS'winning'
p5297
I3905
sS'surfboarder'
p5298
I2617
sS'washer'
p5299
I6020
sS'squirted'
p5300
I1773
sS'hairclips'
p5301
I6341
sS'alien'
p5302
I6696
sS'sleeding'
p5303
I5635
sS'washing'
p5304
I3410
sS'mothers'
p5305
I6241
sS'trio'
p5306
I7288
sS'neighborhood'
p5307
I1372
sS'portable'
p5308
I3335
sS'grabs'
p5309
I1486
sS'knitted'
p5310
I4304
sS'strung'
p5311
I6871
sS'perspective'
p5312
I3669
sS'further'
p5313
I5680
sS'ribbon'
p5314
I1207
sS'cigars'
p5315
I2944
sS'dial'
p5316
I6942
sS'swampy'
p5317
I2487
sS'stood'
p5318
I5036
sS'wrecked'
p5319
I3937
sS'stool'
p5320
I1517
sS'stoop'
p5321
I2646
sS'abs'
p5322
I6953
sS'public'
p5323
I730
sS'tattoos'
p5324
I1209
sS'surfer'
p5325
I266
sS'puddles'
p5326
I3287
sS'newspaper'
p5327
I844
sS'cylindrical'
p5328
I5682
sS'operating'
p5329
I1927
sS'busstop'
p5330
I6062
sS'affectionately'
p5331
I4884
sS'unfurled'
p5332
I5539
sS'table'
p5333
I207
sS'rollerbladers'
p5334
I4046
sS'search'
p5335
I3978
sS'substance'
p5336
I3775
sS'tortoise'
p5337
I4652
sS'stretching'
p5338
I1619
sS'storefront'
p5339
I2371
sS'airport'
p5340
I2301
sS'narrow'
p5341
I1412
sS'skids'
p5342
I4807
sS'peering'
p5343
I3054
sS'buses'
p5344
I3396
sS'caravan'
p5345
I4390
sS'transit'
p5346
I3441
sS'possessively'
p5347
I8181
sS'unifrom'
p5348
I8119
sS'zagging'
p5349
I7769
sS'armed'
p5350
I7693
sS'dachshund'
p5351
I2386
sS'eye'
p5352
I1086
sS'composure'
p5353
I6365
sS'muti'
p5354
I5703
sS'hillock'
p5355
I8388
sS'wiped'
p5356
I4087
sS'destination'
p5357
I5529
sS'texting'
p5358
I5025
sS'two'
p5359
I12
sS'fortune'
p5360
I5653
sS'twp'
p5361
I7698
sS'splash'
p5362
I765
sS'mutltiple'
p5363
I7907
sS'lassie'
p5364
I3649
sS'raft'
p5365
I524
sS'dunks'
p5366
I2943
sS'megaphone'
p5367
I6768
sS'wipes'
p5368
I3322
sS'pawing'
p5369
I4404
sS'diamond'
p5370
I5984
sS'shoulderbag'
p5371
I7889
sS'canon'
p5372
I3251
sS'landed'
p5373
I3511
sS'controlling'
p5374
I4713
sS'lemons'
p5375
I5329
sS'varying'
p5376
I3533
sS'gold'
p5377
I608
sS'town'
p5378
I1144
sS'cluster'
p5379
I3756
sS'sucks'
p5380
I3619
sS'dew'
p5381
I4018
sS'guards'
p5382
I2715
sS'huge'
p5383
I443
sS'escorted'
p5384
I4875
sS'clergy'
p5385
I6195
sS'abandon'
p5386
I4576
sS'specialized'
p5387
I3826
sS'marble'
p5388
I1990
sS'needlepoint'
p5389
I6732
sS'shark'
p5390
I6393
sS'synchronized'
p5391
I5005
sS'stacking'
p5392
I5195
sS'onslaught'
p5393
I7607
sS'share'
p5394
I1902
sS'narby'
p5395
I5549
sS'collision'
p5396
I4768
sS'rainstorm'
p5397
I8488
sS'numbers'
p5398
I2104
sS'purchased'
p5399
I6152
sS'sharp'
p5400
I1233
sS'unexcited'
p5401
I8076
sS'siren'
p5402
I7149
sS'awkward'
p5403
I6275
sS'comfort'
p5404
I4482
sS'razer'
p5405
I5342
sS'bullfighting'
p5406
I7422
sS'maps'
p5407
I5415
sS'jumpropes'
p5408
I8369
sS'ensemble'
p5409
I6925
sS'frilly'
p5410
I4373
sS'redwood'
p5411
I6155
sS'florescent'
p5412
I4166
sS'dresswear'
p5413
I6496
sS'blood'
p5414
I3924
sS'coming'
p5415
I463
sS'bloom'
p5416
I4191
sS'bleak'
p5417
I8434
sS'chute'
p5418
I6066
sS'crowded'
p5419
I508
sS'coat'
p5420
I202
sS'eats'
p5421
I681
sS'bathed'
p5422
I5187
sS'dragon'
p5423
I2225
sS'deserted'
p5424
I7249
sS'coal'
p5425
I2939
sS'sect'
p5426
I6589
sS'bathes'
p5427
I5497
sS'playing'
p5428
I33
sS'frisbree'
p5429
I8407
sS'infant'
p5430
I1503
sS'rifles'
p5431
I3235
sS'rounded'
p5432
I7392
sS'stains'
p5433
I4741
sS'already'
p5434
I5422
sS'through'
p5435
I32
sS'cabana'
p5436
I7165
sS'golfing'
p5437
I5253
sS'25'
p5438
I3861
sS'21'
p5439
I4697
sS'possessions'
p5440
I4623
sS'23'
p5441
I2850
sS'jostles'
p5442
I6900
sS'28'
p5443
I3713
sS'29'
p5444
I6414
sS'handheld'
p5445
I5091
sS'late'
p5446
I3421
sS'percussionists'
p5447
I6911
sS'pac'
p5448
I6610
sS'dolly'
p5449
I4704
sS'pad'
p5450
I2085
sS'crawls'
p5451
I1293
sS'dolls'
p5452
I8196
sS'lookout'
p5453
I7770
sS'good'
p5454
I2264
sS'aerobics'
p5455
I5139
sS'seeking'
p5456
I8289
sS'males'
p5457
I1461
sS'bandages'
p5458
I6285
sS'walls'
p5459
I1342
sS'compound'
p5460
I6262
sS'oxford'
p5461
I3641
sS'stepped'
p5462
I4585
sS'manuever'
p5463
I7039
sS'huddle'
p5464
I1338
sS'chairlift'
p5465
I2948
sS'pregnant'
p5466
I4959
sS'ashen'
p5467
I5446
sS'evade'
p5468
I6885
sS'goofy'
p5469
I2473
sS'everyone'
p5470
I3706
sS'house'
p5471
I346
sS'energy'
p5472
I4588
sS'hard'
p5473
I1306
sS'beret'
p5474
I2348
sS'engaging'
p5475
I4555
sS'fist'
p5476
I2305
sS'portland'
p5477
I4514
sS'backpacks'
p5478
I943
sS'comic'
p5479
I4053
sS'flower'
p5480
I620
sS'trooper'
p5481
I5134
sS'foosball'
p5482
I5611
sS'pigeon'
p5483
I3892
sS'projected'
p5484
I5776
sS'acting'
p5485
I2701
sS'print'
p5486
I1353
sS'jacketed'
p5487
I5442
sS'foreground'
p5488
I817
sS'crouched'
p5489
I1543
sS'bulls'
p5490
I2897
sS'pleasant'
p5491
I5655
sS'crouches'
p5492
I977
sS'members'
p5493
I1225
sS'backed'
p5494
I3466
sS'beginning'
p5495
I2329
sS'faucet'
p5496
I3109
sS'innertubes'
p5497
I4694
sS'blossoming'
p5498
I4031
sS'lkievely'
p5499
I7377
sS'aerodynamically'
p5500
I7627
sS'dribbles'
p5501
I1126
sS'pure'
p5502
I5831
sS'corkscrew'
p5503
I5380
sS'pilots'
p5504
I4688
sS'kayer'
p5505
I8442
sS'copper'
p5506
I3841
sS'embraces'
p5507
I3393
sS'dont'
p5508
I7528
sS'stabs'
p5509
I5018
sS'treetops'
p5510
I6699
sS'netted'
p5511
I4512
sS'jogs'
p5512
I1647
sS'done'
p5513
I3527
sS'dong'
p5514
I7441
sS'campground'
p5515
I3752
sS'cups'
p5516
I2118
sS'precariously'
p5517
I4945
sS'loofa'
p5518
I5419
sS'bloodied'
p5519
I6585
sS'twenty'
p5520
I5299
sS'jetty'
p5521
I2840
sS'least'
p5522
I4359
sS'paint'
p5523
I605
sS'leash'
p5524
I347
sS'mama'
p5525
I7496
sS'hummingbird'
p5526
I3405
sS'lease'
p5527
I2788
sS'bumble'
p5528
I6807
sS'muscles'
p5529
I8413
sS'para'
p5530
I3071
sS'needle'
p5531
I3413
sS'park'
p5532
I117
sS'draped'
p5533
I3790
sS'part'
p5534
I1223
sS'muscled'
p5535
I6955
sS'caucasion'
p5536
I7134
sS'stirs'
p5537
I5029
sS'multilple'
p5538
I8112
sS'applebee'
p5539
I5862
sS'fold'
p5540
I5540
sS'capris'
p5541
I4138
sS'gotten'
p5542
I5485
sS'colander'
p5543
I3720
sS'bohemian'
p5544
I6894
sS'tricycles'
p5545
I1822
sS'graying'
p5546
I6449
sS'collapsable'
p5547
I8403
sS'treated'
p5548
I4322
sS'ages'
p5549
I4014
sS'tucking'
p5550
I7277
sS'rollskating'
p5551
I8038
sS'windbreaker'
p5552
I5431
sS'aged'
p5553
I1304
sS'orders'
p5554
I7740
sS'backseat'
p5555
I4822
sS'mountain'
p5556
I109
sS'cardigan'
p5557
I3630
sS'built'
p5558
I2546
sS'dancing'
p5559
I326
sS'scrubby'
p5560
I3558
sS'flaming'
p5561
I2365
sS'couch'
p5562
I417
sS'flares'
p5563
I7006
sS'rowed'
p5564
I7758
sS'lifts'
p5565
I1416
sS'build'
p5566
I3149
sS'rafters'
p5567
I3057
sS'smilely'
p5568
I6103
sS'dalmatians'
p5569
I3680
sS'sweatshirts'
p5570
I3319
sS'eggs'
p5571
I2970
sS'flute'
p5572
I1770
sS'salmon'
p5573
I4089
sS'chart'
p5574
I5033
sS'most'
p5575
I3407
sS'charm'
p5576
I5414
sS'moss'
p5577
I3046
sS'shorthair'
p5578
I6291
sS'shawls'
p5579
I4941
sS'sunhat'
p5580
I5952
sS'extremely'
p5581
I3616
sS'refrigerator'
p5582
I2959
sS'giggling'
p5583
I5610
sS'chested'
p5584
I3254
sS'cramped'
p5585
I3628
sS'reflections'
p5586
I3443
sS'dodging'
p5587
I7141
sS'sparrow'
p5588
I4217
sS'fins'
p5589
I5672
sS'hopper'
p5590
I3411
sS'hugging'
p5591
I626
sS'perches'
p5592
I4919
sS'hillside'
p5593
I988
sS'crocheted'
p5594
I5158
sS'repels'
p5595
I2554
sS'carefully'
p5596
I2481
sS'find'
p5597
I3509
sS'chimes'
p5598
I6782
sS'giant'
p5599
I877
sS'nervous'
p5600
I5631
sS'ruin'
p5601
I6213
sS'unhappy'
p5602
I2800
sS'bakery'
p5603
I7888
sS'8'
I1438
sS'seller'
p5604
I8124
sS'boulder'
p5605
I1352
sS'potao'
p5606
I5852
sS'toddlers'
p5607
I1585
sS'batter'
p5608
I2028
sS'silk'
p5609
I4935
sS'sill'
p5610
I6217
sS'merchandise'
p5611
I2710
sS'spikes'
p5612
I4041
sS'motorcycles'
p5613
I1056
sS'tracksuit'
p5614
I2160
sS'remove'
p5615
I6984
sS'spiked'
p5616
I2994
sS'common'
p5617
I7200
sS'witches'
p5618
I7747
sS'archways'
p5619
I6576
sS'restaurants'
p5620
I4439
sS'prestends'
p5621
I8150
sS'scruffy'
p5622
I2773
sS'vine'
p5623
I2257
sS'lion'
p5624
I2954
sS'individual'
p5625
I2555
sS'tackles'
p5626
I2094
sS'stance'
p5627
I4179
sS'visiting'
p5628
I8110
sS'halves'
p5629
I4751
sS'fans'
p5630
I1258
sS'skislope'
p5631
I7519
sS'cutout'
p5632
I2581
sS'easels'
p5633
I5992
sS'peircings'
p5634
I8017
sS'apparantly'
p5635
I6849
sS'floats'
p5636
I1359
sS'folding'
p5637
I1792
sS'restaurant'
p5638
I481
sS'archway'
p5639
I3208
sS'alon'
p5640
I5996
sS'foreign'
p5641
I5777
sS'sparring'
p5642
I2472
sS'shriner'
p5643
I6097
sS'bongo'
p5644
I5045
sS'rag'
p5645
I1886
sS'newborn'
p5646
I2127
sS'pamphlet'
p5647
I5174
sS'dances'
p5648
I693
sS'dancer'
p5649
I1696
sS'clowds'
p5650
I6219
sS'huddles'
p5651
I7834
sS'busters'
p5652
I7967
sS'patiently'
p5653
I3043
sS'weaving'
p5654
I4488
sS'raise'
p5655
I2050
sS'create'
p5656
I7021
sS'screened'
p5657
I7242
sS'secret'
p5658
I7099
sS'dropping'
p5659
I1766
sS'meeting'
p5660
I2396
sS'astonishment'
p5661
I5790
sS'slips'
p5662
I6676
sS'submerges'
p5663
I3723
sS'vans'
p5664
I6457
sS'gay'
p5665
I5102
sS'assorted'
p5666
I8446
sS'gas'
p5667
I2179
sS'gap'
p5668
I3868
sS'mountaineers'
p5669
I3657
sS'gal'
p5670
I4250
sS'fending'
p5671
I7206
sS'neckties'
p5672
I5669
sS'replaces'
p5673
I6985
sS'fur'
p5674
I967
sS'interlocking'
p5675
I7327
sS'solid'
p5676
I6787
sS'bill'
p5677
I3685
sS'grainy'
p5678
I7702
sS'horseshoe'
p5679
I3693
sS'replaced'
p5680
I7928
sS'fun'
p5681
I1365
sS'vaults'
p5682
I5089
sS'adjusts'
p5683
I6235
sS'physiques'
p5684
I7372
sS'violently'
p5685
I7498
sS'decoration'
p5686
I3569
sS'swishing'
p5687
I7314
sS'itself'
p5688
I1275
sS'primping'
p5689
I7258
sS'italy'
p5690
I4983
sS'corridor'
p5691
I3024
sS'wisks'
p5692
I7229
sS'windmill'
p5693
I4887
sS'strips'
p5694
I2725
sS'tupperware'
p5695
I5953
sS'dge'
p5696
I6060
sS'stripy'
p5697
I3157
sS'leopard'
p5698
I7031
sS'desks'
p5699
I3395
sS'moment'
p5700
I2723
sS'coliding'
p5701
I6529
sS'stripe'
p5702
I2162
sS'sandals'
p5703
I1235
sS'celebratory'
p5704
I6624
sS'bedroll'
p5705
I8432
sS'lacrosse'
p5706
I1872
sS'gestures'
p5707
I1672
sS'beanie'
p5708
I2191
sS'tugs'
p5709
I3872
sS'panelling'
p5710
I5362
sS'laden'
p5711
I3590
sS'gators'
p5712
I6388
sS'flags'
p5713
I499
sS'nordic'
p5714
I7354
sS'rears'
p5715
I4967
sS'entry'
p5716
I5156
sS'paneling'
p5717
I8439
sS'wig'
p5718
I1703
sS'eyeglasses'
p5719
I4911
sS'hilltops'
p5720
I8046
sS'bandanas'
p5721
I8332
sS'isolated'
p5722
I5960
sS'shape'
p5723
I5508
sS'atomic'
p5724
I6679
sS'jumpsuit'
p5725
I1991
sS'rundown'
p5726
I3789
sS'cut'
p5727
I938
sS'cup'
p5728
I661
sS'spills'
p5729
I6078
sS'shouting'
p5730
I3777
sS'cue'
p5731
I8237
sS'kites'
p5732
I1633
sS'snap'
p5733
I2849
sS'bridal'
p5734
I2370
sS'easter'
p5735
I2551
sS'excited'
p5736
I1667
sS'bin'
p5737
I2297
sS'overhanging'
p5738
I3757
sS'big'
p5739
I196
sS'rebound'
p5740
I7223
sS'bib'
p5741
I2541
sS'judgement'
p5742
I6996
sS'foreigners'
p5743
I7651
sS'bit'
p5744
I2791
sS'competitively'
p5745
I6421
sS'vapour'
p5746
I5644
sS'semi'
p5747
I4137
sS'follows'
p5748
I886
sS'disks'
p5749
I6331
sS'glove'
p5750
I1440
sS'bamboo'
p5751
I3213
sS'valleys'
p5752
I5418
sS'gardening'
p5753
I5077
sS'humorous'
p5754
I8290
sS'duck'
p5755
I860
sS'back'
p5756
I155
sS'impeach'
p5757
I3412
sS'martial'
p5758
I871
sS'ornaments'
p5759
I5125
sS'mirror'
p5760
I1038
sS'candle'
p5761
I2691
sS'scale'
p5762
I5162
sS'jewelry'
p5763
I1534
sS'culprit'
p5764
I6971
sS'pet'
p5765
I1547
sS'pep'
p5766
I6051
sS'riverrafting'
p5767
I6467
sS'pen'
p5768
I1744
sS'sneakers'
p5769
I1456
sS'gallops'
p5770
I4838
sS'pee'
p5771
I6475
sS'clifftop'
p5772
I7925
sS'nose'
p5773
I455
sS'cameraman'
p5774
I2558
sS'costumes'
p5775
I539
sS'lounges'
p5776
I7973
sS'passifier'
p5777
I6858
sS'costumed'
p5778
I1682
sS'hippie'
p5779
I8346
sS'goods'
p5780
I4622
sS'piles'
p5781
I3333
sS'inflatbale'
p5782
I5961
sS'graduation'
p5783
I2648
sS'piled'
p5784
I3140
sS'shrowded'
p5785
I6120
sS'daisies'
p5786
I5129
sS'aliens'
p5787
I5496
sS'hapy'
p5788
I5770
sS'framed'
p5789
I2261
sS'portrate'
p5790
I6949
sS'clack'
p5791
I7189
sS'frames'
p5792
I2972
sS'lesson'
p5793
I7241
sS'downhill'
p5794
I723
sS'calming'
p5795
I7630
sS'jockey'
p5796
I1630
sS'preservers'
p5797
I5537
sS'tigger'
p5798
I5803
sS'camera'
p5799
I91
sS'homemade'
p5800
I2318
sS'forward'
p5801
I1120
sS'opponent'
p5802
I1549
sS'groomsmen'
p5803
I2938
sS'adjusting'
p5804
I2812
sS'boys'
p5805
I96
sS'hopes'
p5806
I3762
sS'calico'
p5807
I5132
sS'directed'
p5808
I5632
sS'restaraunt'
p5809
I3869
sS'clips'
p5810
I4653
sS'sort'
p5811
I1916
sS'partition'
p5812
I6544
sS'geese'
p5813
I1383
sS'stripped'
p5814
I2527
sS'playgroud'
p5815
I4767
sS'tatoo'
p5816
I8095
sS'single'
p5817
I1373
sS'curb'
p5818
I1150
sS'necks'
p5819
I4310
sS'curl'
p5820
I4928
sS'dragging'
p5821
I2027
sS'oval'
p5822
I6979
sS'organizing'
p5823
I7890
sS'pecks'
p5824
I7143
sS'pails'
p5825
I4650
sS'finley'
p5826
I4218
sS'samll'
p5827
I6058
sS'firetruck'
p5828
I1706
sS'showgirls'
p5829
I4790
sS'prepared'
p5830
I4148
sS'lens'
p5831
I2489
sS'fishes'
p5832
I1413
sS'fisher'
p5833
I8459
sS'depicting'
p5834
I3291
sS'barettes'
p5835
I6340
sS'desert'
p5836
I664
sS'wringing'
p5837
I5630
sS'overlooking'
p5838
I410
sS'vehicles'
p5839
I1212
sS'wards'
p5840
I5909
sS'amused'
p5841
I3923
sS'roping'
p5842
I4077
sS'presenting'
p5843
I7859
sS'rallies'
p5844
I5383
sS'2008'
p5845
I6612
sS'stroller'
p5846
I1021
sS'amplifier'
p5847
I4231
sS'wrangle'
p5848
I7482
sS'entwined'
p5849
I7631
sS'groceries'
p5850
I3576
sS'snowmobile'
p5851
I1642
sS'intricate'
p5852
I5894
sS'peanut'
p5853
I2964
sS'frisbeen'
p5854
I5349
sS'chaps'
p5855
I3224
sS'helps'
p5856
I1004
sS'frisbees'
p5857
I3210
sS'brooms'
p5858
I3161
sS'mowed'
p5859
I3973
sS'gravel'
p5860
I696
sS'bottomed'
p5861
I6313
sS'sequins'
p5862
I4980
sS'htting'
p5863
I6010
sS'huddled'
p5864
I2866
sS'putting'
p5865
I899
sS'sombody'
p5866
I4458
sS'touchline'
p5867
I5918
sS'legos'
p5868
I2963
sS'entire'
p5869
I6801
sS'recreation'
p5870
I4301
sS'doggy'
p5871
I4443
sS'knight'
p5872
I7623
sS'mottled'
p5873
I4079
sS'choppy'
p5874
I1823
sS'lapse'
p5875
I7611
sS'crow'
p5876
I5022
sS'icicles'
p5877
I7481
sS'boatful'
p5878
I6999
sS'mural'
p5879
I1635
sS'rivers'
p5880
I5569
sS'squabble'
p5881
I5758
sS'croc'
p5882
I8456
sS'celebrates'
p5883
I3301
sS'chicago'
p5884
I4895
sS'giving'
p5885
I919
sS'anthem'
p5886
I5946
sS'pipes'
p5887
I8136
sS'paddle'
p5888
I813
sS'kayaker'
p5889
I1178
sS'exercise'
p5890
I2572
sS'body'
p5891
I263
sS'gemmed'
p5892
I7493
sS'exchange'
p5893
I7579
sS'baring'
p5894
I3271
sS'intercept'
p5895
I5038
sS'sink'
p5896
I3221
sS'others'
p5897
I284
sS'sing'
p5898
I1776
sS'jockeys'
p5899
I1500
sS'extreme'
p5900
I2082
sS'talent'
p5901
I5455
sS'stalks'
p5902
I4730
sS'33'
p5903
I6901
sS'32'
p5904
I6908
sS'30'
p5905
I7126
sS'climb'
p5906
I462
sS'composed'
p5907
I7488
sS'baskets'
p5908
I2316
sS'outstreched'
p5909
I6204
sS'limo'
p5910
I3377
sS'limb'
p5911
I1818
sS'gateway'
p5912
I5291
sS'lime'
p5913
I2596
sS'beanches'
p5914
I7998
sS'chi'
p5915
I7785
sS'themselves'
p5916
I1174
sS'corndogs'
p5917
I2769
sS'zipping'
p5918
I6675
sS'snowpacked'
p5919
I8473
sS'kiosk'
p5920
I4416
sS'dripping'
p5921
I6354
sS'thatch'
p5922
I7857
sS'trail'
p5923
I322
sS'train'
p5924
I390
sS'prizes'
p5925
I3304
sS'tattered'
p5926
I3822
sS'arranging'
p5927
I8274
sS'harvest'
p5928
I6883
sS'swooping'
p5929
I3991
sS'fooling'
p5930
I7545
sS'joyfully'
p5931
I8126
sS'tunnel'
p5932
I569
sS'fadora'
p5933
I8018
sS'neclace'
p5934
I5701
sS'subdivsion'
p5935
I6080
sS'island'
p5936
I2789
sS'closing'
p5937
I3970
sS'fetch'
p5938
I960
sS'snacks'
p5939
I8114
sS'boned'
p5940
I7371
sS'bones'
p5941
I5401
sS'native'
p5942
I1834
sS'lamb'
p5943
I5384
sS'curving'
p5944
I7018
sS'daring'
p5945
I4966
sS'regains'
p5946
I6364
sS'lame'
p5947
I8028
sS'holds'
p5948
I125
sS'grimaces'
p5949
I4117
sS'formations'
p5950
I2480
sS'lamp'
p5951
I2484
sS'forest'
p5952
I298
sS'furnace'
p5953
I4989
sS'nips'
p5954
I3073
sS'onlookers'
p5955
I684
sS'watery'
p5956
I2292
sS'buildings'
p5957
I551
sS'kaki'
p5958
I7988
sS'waters'
p5959
I1001
sS'collection'
p5960
I3476
sS'united'
p5961
I3329
sS'bluff'
p5962
I2657
sS'maracas'
p5963
I6182
sS'terrier'
p5964
I955
sS'cuddling'
p5965
I7662
sS'chasing'
p5966
I271
sS'linet'
p5967
I8108
sS'lines'
p5968
I1594
sS'slighty'
p5969
I6526
sS'chief'
p5970
I5073
sS'minivan'
p5971
I3894
sS'furious'
p5972
I6851
sS'lined'
p5973
I790
sS'mustache'
p5974
I2010
sS'meter'
p5975
I3417
sS'hugged'
p5976
I3185
sS'knocks'
p5977
I4173
sS'bunch'
p5978
I653
sS'bridges'
p5979
I5994
sS'twirls'
p5980
I3065
sS'la'
p5981
I7475
sS'rappels'
p5982
I4094
sS'll'
p5983
I5638
sS'potties'
p5984
I3920
sS'squatting'
p5985
I1996
sS'handbag'
p5986
I2287
sS'ls'
p5987
I7184
sS'dad'
p5988
I2910
sS'tickled'
p5989
I5451
sS'junction'
p5990
I7045
sS'spell'
p5991
I3897
sS'cutting'
p5992
I2166
sS'fiesty'
p5993
I7616
sS'day'
p5994
I334
sS'straddling'
p5995
I4846
sS'stunts'
p5996
I2333
sS'snowdrift'
p5997
I5637
sS'blindfolded'
p5998
I2568
sS'blazing'
p5999
I3534
sS'crudely'
p6000
I6306
sS'slipping'
p6001
I8330
sS'tubing'
p6002
I3557
sS'identifier'
p6003
I6502
sS'gazing'
p6004
I2535
sS'moped'
p6005
I3928
sS'buena'
p6006
I8147
sS'einstein'
p6007
I3403
sS'slumped'
p6008
I6084
sS'sweatshirt'
p6009
I510
sS'tubular'
p6010
I4441
sS'popping'
p6011
I2105
sS'matt'
p6012
I8396
sS'mats'
p6013
I2861
sS'announcer'
p6014
I7862
sS'res'
p6015
I6057
sS'defend'
p6016
I4910
sS'bullfighter'
p6017
I5017
sS'mate'
p6018
I4735
sS'messenger'
p6019
I3719
sS'lecture'
p6020
I3932
sS'electronics'
p6021
I3701
sS'ref'
p6022
I4463
sS'windsurfing'
p6023
I2630
sS'red'
p6024
I24
sS'approached'
p6025
I4090
sS'pastures'
p6026
I8463
sS'retrieved'
p6027
I4387
sS'approaches'
p6028
I1652
sS'statefarm.com'
p6029
I6796
sS'early'
p6030
I3240
sS'dupar'
p6031
I7520
sS'retrieves'
p6032
I1523
sS'retriever'
p6033
I869
sS'backwards'
p6034
I922
sS'turbans'
p6035
I3367
sS'mortar'
p6036
I7812
sS'shells'
p6037
I7635
sS'skateboard'
p6038
I133
sS'yarn'
p6039
I5153
sS'barriers'
p6040
I3019
sS'kildare'
p6041
I5693
sS'retail'
p6042
I4829
sS'waitress'
p6043
I4114
sS'sack'
p6044
I3770
sS'philadelphia'
p6045
I5604
sS'puppet'
p6046
I3299
sS'lagging'
p6047
I5977
sS'reached'
p6048
I3008
sS'braces'
p6049
I5356
sS'windsurfers'
p6050
I6945
sS'ancient'
p6051
I3032
sS'monkey'
p6052
I1064
sS'laps'
p6053
I3566
sS'pots'
p6054
I4275
sS'balck'
p6055
I3191
sS'weimeraners'
p6056
I7207
sS'chases'
p6057
I424
sS'cabin'
p6058
I2980
sS'scans'
p6059
I5922
sS'flume'
p6060
I6325
sS'gear'
p6061
I374
sS'bulldog'
p6062
I1973
sS'completed'
p6063
I5713
sS'brazilian'
p6064
I8031
sS'dreary'
p6065
I8109
sS'excercises'
p6066
I5948
sS'foamy'
p6067
I3839
sS'unfurling'
p6068
I6633
sS'slopes'
p6069
I2277
sS'glassses'
p6070
I5568
sS'izod'
p6071
I6114
sS'lionist'
p6072
I7073
sS'flashes'
p6073
I8351
sS'nuzzling'
p6074
I3631
sS'comfortable'
p6075
I7136
sS'tide'
p6076
I3017
sS'cavern'
p6077
I5186
sS'have'
p6078
I530
sS'throat'
p6079
I6912
sS'curved'
p6080
I2990
sS'demonstration'
p6081
I3520
sS'sidecar'
p6082
I2613
sS'min'
p6083
I6002
sS'mic'
p6084
I7537
sS'billiards'
p6085
I8236
sS'mid'
p6086
I981
sS'mix'
p6087
I3588
sS'outcrop'
p6088
I4213
sS'parka'
p6089
I1754
sS'trundles'
p6090
I6707
sS'parkinglot'
p6091
I6139
sS'pausing'
p6092
I5357
sS'eight'
p6093
I1396
sS'strikes'
p6094
I3486
sS'sedan'
p6095
I5343
sS'ganilla'
p6096
I7708
sS'quilted'
p6097
I4532
sS'enthusiastic'
p6098
I6124
sS'gather'
p6099
I679
sS'dirtracing'
p6100
I7603
sS'occasion'
p6101
I5041
sS'skinny'
p6102
I1349
sS'planks'
p6103
I7102
sS'kite'
p6104
I893
sS'text'
p6105
I7351
sS'supported'
p6106
I4394
sS'rotating'
p6107
I8061
sS'portfolio'
p6108
I7807
sS'supporter'
p6109
I3919
sS'staff'
p6110
I4477
sS'coloring'
p6111
I2175
sS'sparks'
p6112
I3318
sS'controls'
p6113
I4679
sS'bernard'
p6114
I3136
sS'prancing'
p6115
I3740
sS'hankerchief'
p6116
I6253
sS'emitting'
p6117
I3667
sS'discovers'
p6118
I7887
sS'regularly'
p6119
I5460
sS'beachgoers'
p6120
I3541
sS'beat'
p6121
I3060
sS'photography'
p6122
I4554
sS'biek'
p6123
I6729
sS'stripes'
p6124
I1485
sS'bear'
p6125
I1030
sS'beam'
p6126
I1228
sS'bean'
p6127
I5639
sS'cacti'
p6128
I6102
sS'beak'
p6129
I2116
sS'bead'
p6130
I6721
sS'striped'
p6131
I235
sS'weating'
p6132
I5766
sS'areas'
p6133
I7786
sS'ashtray'
p6134
I6737
sS'horizontally'
p6135
I7396
sS'fixes'
p6136
I6994
sS'fixer'
p6137
I7687
sS'eyebrow'
p6138
I4357
sS'teams'
p6139
I651
sS'ballplayers'
p6140
I7290
sS'cycler'
p6141
I7047
sS'cycles'
p6142
I4262
sS'caches'
p6143
I5499
sS'turkeys'
p6144
I2407
sS'puddle'
p6145
I445
sS'intertube'
p6146
I3605
sS'wetland'
p6147
I6905
sS'racket'
p6148
I690
sS'tuxedos'
p6149
I1954
sS'shallows'
p6150
I3283
sS'graffitti'
p6151
I6047
sS'pedigree'
p6152
I6141
sS'attempting'
p6153
I641
sS'pattern'
p6154
I2403
sS'purses'
p6155
I2169
sS'routine'
p6156
I3145
sS'progress'
p6157
I1904
sS'boundary'
p6158
I3846
sS'mown'
p6159
I4326
sS'antics'
p6160
I6711
sS'nudges'
p6161
I7491
sS'buster'
p6162
I5864
sS'joke'
p6163
I4834
sS'taking'
p6164
I245
sS'boulders'
p6165
I3123
sS'longhaired'
p6166
I4201
sS'passing'
p6167
I973
sS'highland'
p6168
I3823
sS'masses'
p6169
I8058
sS'otherwise'
p6170
I3875
sS'statues'
p6171
I2214
sS'ships'
p6172
I5884
sS'denim'
p6173
I903
sS'bicyclers'
p6174
I4671
sS'ac'
p6175
I4128
sS'glassess'
p6176
I7542
sS'laugh'
p6177
I1050
sS'bespectacled'
p6178
I6240
sS'buggys'
p6179
I5755
sS'pouring'
p6180
I1369
sS'intot'
p6181
I6936
sS'swimmer'
p6182
I1219
sS'muddy'
p6183
I497
sS'mouthpiece'
p6184
I6677
sS'gaze'
p6185
I3504
sS'curtain'
p6186
I2624
sS'moutain'
p6187
I6483
sS'wrings'
p6188
I5628
sS'antlers'
p6189
I4298
sS'juggler'
p6190
I5829
sS'perplexed'
p6191
I7580
sS'turban'
p6192
I3944
sS'ridden'
p6193
I1325
sS'redhead'
p6194
I8429
sS'finished'
p6195
I3482
sS'angles'
p6196
I8399
sS'bull'
p6197
I586
sS'waterhole'
p6198
I7011
sS'locomotives'
p6199
I7605
sS'boods'
p6200
I7829
sS'cot'
p6201
I4176
sS'homes'
p6202
I5065
sS'multi'
p6203
I1248
sS'plaid'
p6204
I719
sS'splits'
p6205
I2110
sS'plain'
p6206
I1112
sS'nd'
p6207
I5707
sS'rectangular'
p6208
I5817
sS'trows'
p6209
I7768
sS'carved'
p6210
I3473
sS'manually'
p6211
I6764
sS'almost'
p6212
I1145
sS'helped'
p6213
I7009
sS'ax'
p6214
I6592
sS'partner'
p6215
I4237
sS'arabic'
p6216
I6937
sS'pedestal'
p6217
I4830
sS'tumbling'
p6218
I2458
sS'tumbles'
p6219
I4546
sS'injured'
p6220
I1845
sS'practice'
p6221
I2060
sS'torwards'
p6222
I5200
sS'upclose'
p6223
I7081
sS'binoculars'
p6224
I1553
sS'blockers'
p6225
I7160
sS'spitting'
p6226
I5149
sS'sisters'
p6227
I6756
sS'numbered'
p6228
I1628
sS'penzance'
p6229
I4165
sS'center'
p6230
I1301
sS'teeshirt'
p6231
I8348
sS'overshadowed'
p6232
I8037
sS'thought'
p6233
I6966
sS'lillypads'
p6234
I6137
sS'snorkel'
p6235
I4203
sS'sets'
p6236
I1408
sS'ravine'
p6237
I3056
sS'muscle'
p6238
I3522
sS'binocular'
p6239
I5076
sS'usual'
p6240
I5309
sS'stores'
p6241
I2136
sS'barking'
p6242
I1075
sS'proximity'
p6243
I7138
sS'seats'
p6244
I1290
sS'tough'
p6245
I5590
sS'flashlight'
p6246
I5313
sS'tattoed'
p6247
I6333
sS'ads'
p6248
I7666
sS'onward'
p6249
I3708
sS'lake'
p6250
I177
sS'bench'
p6251
I161
sS'backpacker'
p6252
I1877
sS'add'
p6253
I6069
sS'citizen'
p6254
I8233
sS'281'
p6255
I4992
sS'terrorizes'
p6256
I8201
sS'match'
p6257
I788
sS'tests'
p6258
I5696
sS'dryed'
p6259
I6479
sS'paralell'
p6260
I6227
sS'patrollers'
p6261
I6929
sS'like'
p6262
I411
sS'sofa'
p6263
I1279
sS'works'
p6264
I1827
sS'soft'
p6265
I1636
sS'sandcastles'
p6266
I6081
sS'italian'
p6267
I6722
sS'aerobatics'
p6268
I7673
sS'nfl'
p6269
I6439
sS'crazily'
p6270
I4605
sS'propel'
p6271
I4163
sS'obsured'
p6272
I7657
sS'equipments'
p6273
I6369
sS'swimsuits'
p6274
I1435
sS'hair'
p6275
I144
sS'goaltender'
p6276
I4837
sS'paddock'
p6277
I7982
sS'dunes'
p6278
I2621
sS'shelter'
p6279
I2686
sS'masked'
p6280
I3042
sS'bustling'
p6281
I5623
sS'fiddle'
p6282
I6647
sS'speak'
p6283
I2378
sS'chains'
p6284
I2852
sS'panes'
p6285
I5667
sS'ropey'
p6286
I7612
sS'pepper'
p6287
I6789
sS'hose'
p6288
I747
sS'gontaga'
p6289
I5702
sS'oiled'
p6290
I8258
sS'buttoned'
p6291
I7208
sS'recieving'
p6292
I4617
sS'panel'
p6293
I4059
sS'vuitton'
p6294
I3164
sS'gifts'
p6295
I5491
sS'about'
p6296
I314
sS'boards'
p6297
I1806
sS'interestingly'
p6298
I7798
sS'smartly'
p6299
I3328
sS'introduces'
p6300
I5393
sS'beaked'
p6301
I7264
sS'tailed'
p6302
I6086
sS'pagent'
p6303
I8444
sS'backbends'
p6304
I4778
sS'childrens'
p6305
I5454
sS'backpackers'
p6306
I4097
sS'zooms'
p6307
I5664
sS'socks'
p6308
I2031
sS'chris'
p6309
I6617
sS'guard'
p6310
I1439
sS'female'
p6311
I416
sS'quickly'
p6312
I978
sS'underpass'
p6313
I5459
sS'adolescent'
p6314
I4410
sS'rushed'
p6315
I6385
sS'brides'
p6316
I3338
sS'vegetables'
p6317
I4056
sS'outline'
p6318
I8125
sS'firefighter'
p6319
I2296
sS'persues'
p6320
I8194
sS'rushes'
p6321
I3241
sS'foraging'
p6322
I8272
sS'rappeling'
p6323
I5196
sS'buy'
p6324
I2324
sS'chatting'
p6325
I2775
sS'bus'
p6326
I495
sS'santas'
p6327
I6814
sS'but'
p6328
I1089
sS'bun'
p6329
I4190
sS'bum'
p6330
I4214
sS'bookshelf'
p6331
I5003
sS'inverted'
p6332
I4557
sS'bug'
p6333
I2413
sS'partially'
p6334
I1421
sS'misty'
p6335
I2465
sS'dangerous'
p6336
I4315
sS'flip'
p6337
I441
sS'squat'
p6338
I3102
sS'skating'
p6339
I483
sS'coverall'
p6340
I7301
sS'rabbits'
p6341
I6537
sS'whisper'
p6342
I4783
sS'domino'
p6343
I2224
sS'circus'
p6344
I5281
sS'topless'
p6345
I1234
sS'pig'
p6346
I2669
sS'musicans'
p6347
I6053
sS'swordfight'
p6348
I6263
sS'collies'
p6349
I7827
sS'shooting'
p6350
I841
sS'pit'
p6351
I1184
sS'campus'
p6352
I2906
sS'messily'
p6353
I3609
sS'dressed'
p6354
I106
sS'42'
p6355
I5941
sS'virtual'
p6356
I5775
sS'jeeps'
p6357
I2928
sS'sewer'
p6358
I5966
sS'sandy'
p6359
I385
sS'ledge'
p6360
I513
sS'u'
I7152
sS'dresses'
p6361
I511
sS'dresser'
p6362
I3961
sS'swimsuites'
p6363
I6245
sS'resembles'
p6364
I6587
sS'bundle'
p6365
I7312
sS'snowscapes'
p6366
I6970
sS'stirred'
p6367
I5402
sS'entertainment'
p6368
I6692
sS'hiker'
p6369
I498
sS'hikes'
p6370
I1655
sS'climing'
p6371
I5763
sS'yell'
p6372
I4738
sS'foreround'
p6373
I5700
sS'baked'
p6374
I4082
sS'bagpipe'
p6375
I2204
sS'hats'
p6376
I451
sS'sleek'
p6377
I4667
sS'sleep'
p6378
I7826
sS'hate'
p6379
I4311
sS'kickbox'
p6380
I5503
sS'poorly'
p6381
I5052
sS'trolley'
p6382
I7332
sS'muzzle'
p6383
I897
sS'feeding'
p6384
I1363
sS'patches'
p6385
I2222
sS'cartwheeling'
p6386
I8042
sS'patched'
p6387
I5692
sS'under'
p6388
I220
sS'bangles'
p6389
I6667
sS'pride'
p6390
I4063
sS'merchant'
p6391
I6380
sS'sheperd'
p6392
I4396
sS'dachshunds'
p6393
I4282
sS'rise'
p6394
I3143
sS'miasto'
p6395
I6824
sS'leggings'
p6396
I2940
sS'jack'
p6397
I1513
sS'chrismas'
p6398
I6780
sS'upstream'
p6399
I6632
sS'confetti'
p6400
I2562
sS'fireplace'
p6401
I1790
sS'monkeys'
p6402
I6436
sS'school'
p6403
I745
sS'motorcyclist'
p6404
I638
sS'attentively'
p6405
I4771
sS'venue'
p6406
I6887
sS'guiding'
p6407
I2671
sS'joggers'
p6408
I7682
sS'enjoy'
p6409
I1257
sS'bicycle'
p6410
I143
sS'throught'
p6411
I4700
sS'feathery'
p6412
I8382
sS'feathers'
p6413
I2216
sS'direct'
p6414
I8303
sS'surrounding'
p6415
I1127
sS'street'
p6416
I71
sS'4x4'
p6417
I6077
sS'expressions'
p6418
I2389
sS'shining'
p6419
I2456
sS'blue'
p6420
I29
sS'hide'
p6421
I3490
sS'christ'
p6422
I7943
sS'beaten'
p6423
I6159
sS'liberty'
p6424
I3020
sS'blur'
p6425
I5084
sS'supplies'
p6426
I3113
sS'withering'
p6427
I6655
sS'disney'
p6428
I6637
sS'pats'
p6429
I6923
sS'kicked'
p6430
I1838
sS'entertains'
p6431
I6237
sS'pontoon'
p6432
I8257
sS'stared'
p6433
I8134
sS'ramps'
p6434
I2109
sS'hundreds'
p6435
I3825
sS'studio'
p6436
I1848
sS'kicker'
p6437
I3711
sS'path'
p6438
I178
sS'stares'
p6439
I1324
sS'luggage'
p6440
I1510
sS'leaves'
p6441
I332
sS'jogging'
p6442
I1081
sS'changes'
p6443
I4872
sS'midway'
p6444
I7425
sS'prints'
p6445
I5387
sS'straw'
p6446
I1006
sS'strap'
p6447
I2633
sS'visible'
p6448
I1603
sS'offf'
p6449
I7745
sS'punching'
p6450
I1915
sS'swings'
p6451
I365
sS'would'
p6452
I5931
sS'hospital'
p6453
I1948
sS'spiky'
p6454
I2755
sS'skijoring'
p6455
I5689
sS'spike'
p6456
I4420
sS'limousine'
p6457
I2956
sS'saber'
p6458
I2762
sS'ti'
p6459
I7784
sS'autumnal'
p6460
I6549
sS'billowing'
p6461
I3361
sS'phone'
p6462
I687
sS'footrace'
p6463
I8400
sS'pouch'
p6464
I4295
sS'shoot'
p6465
I1286
sS'join'
p6466
I3095
sS'skydivers'
p6467
I3845
sS'daft'
p6468
I5185
sS'entertainer'
p6469
I8376
sS'my'
p6470
I8460
sS'grenade'
p6471
I6170
sS'parasailors'
p6472
I4302
sS'swipes'
p6473
I6863
sS'decorative'
p6474
I2930
sS'whizzes'
p6475
I7357
sS'dolphin'
p6476
I2455
sS'keep'
p6477
I2543
sS'smoked'
p6478
I7072
sS'ceremony'
p6479
I2385
sS'aerobatic'
p6480
I7824
sS'santana'
p6481
I6207
sS'end'
p6482
I683
sS'bunk'
p6483
I3888
sS'sitting'
p6484
I48
sS'slalom'
p6485
I2383
sS'drummer'
p6486
I2221
sS'gate'
p6487
I950
sS'widespread'
p6488
I7679
sS'charging'
p6489
I3387
sS'badly'
p6490
I6360
sS'pokes'
p6491
I2253
sS'mouths'
p6492
I816
sS'mess'
p6493
I1832
sS'lump'
p6494
I5002
sS'jumping'
p6495
I44
sS'sparkler'
p6496
I2401
sS'mesa'
p6497
I7544
sS'parallel'
p6498
I1945
sS'snarling'
p6499
I2684
sS'amid'
p6500
I2220
sS'spout'
p6501
I2342
sS'playmat'
p6502
I6886
sS'daredevil'
p6503
I4782
sS'upside'
p6504
I398
sS'jungle'
p6505
I964
sS'enter'
p6506
I2129
sS'flippers'
p6507
I4926
sS'over'
p6508
I45
sS'underside'
p6509
I4215
sS'lampost'
p6510
I6109
sS'mallard'
p6511
I4944
sS'jacuzzi'
p6512
I7876
sS'executes'
p6513
I3244
sS'clapped'
p6514
I7452
sS'glances'
p6515
I4297
sS'beside'
p6516
I218
sS'fairway'
p6517
I5254
sS'writing'
p6518
I944
sS'tilts'
p6519
I4375
sS'trams'
p6520
I6552
sS'croquet'
p6521
I2880
sS'descend'
p6522
I4346
sS'tourist'
p6523
I3632
sS'avoids'
p6524
I6361
sS'dalmation'
p6525
I2170
sS'reenactment'
p6526
I5141
sS'flotation'
p6527
I8306
sS'pinkish'
p6528
I6456
sS'rental'
p6529
I5557
sS'shadows'
p6530
I2900
sS'shadowy'
p6531
I8313
sS'choir'
p6532
I4851
sS'filling'
p6533
I2615
sS'victory'
p6534
I2923
sS'each'
p6535
I136
sS'signing'
p6536
I3450
sS'tumbleweed'
p6537
I4788
sS'cloths'
p6538
I8333
sS'pincer'
p6539
I6169
sS'gymnasium'
p6540
I2339
sS'celebrating'
p6541
I1994
sS'practising'
p6542
I7343
sS'juggling'
p6543
I2084
sS'poncho'
p6544
I5806
sS'basett'
p6545
I6895
sS'driving'
p6546
I527
sS'sang'
p6547
I7150
sS'stringed'
p6548
I5053
sS'haired'
p6549
I248
sS'washed'
p6550
I4060
sS'noisemaker'
p6551
I7247
sS'multicoloured'
p6552
I5434
sS'laid'
p6553
I2794
sS'swirling'
p6554
I7814
sS'moter'
p6555
I7465
sS'bonnets'
p6556
I3238
sS'got'
p6557
I3601
sS'newly'
p6558
I3085
sS'washes'
p6559
I3116
sS'splashed'
p6560
I987
sS'arizona'
p6561
I4427
sS'rail'
p6562
I414
sS'free'
p6563
I1179
sS'formation'
p6564
I887
sS'splashes'
p6565
I550
sS'acrobat'
p6566
I7572
sS'jubilant'
p6567
I8000
sS'grasses'
p6568
I3780
sS'gauzey'
p6569
I7489
sS'outfits'
p6570
I599
sS'soda'
p6571
I1238
sS'onto'
p6572
I239
sS'grassed'
p6573
I8192
sS'industrial'
p6574
I2007
sS'accent'
p6575
I6940
sS'slaloms'
p6576
I7004
sS'puck'
p6577
I1133
sS'encouraging'
p6578
I3993
sS'fantasy'
p6579
I8190
sS'professionally'
p6580
I7042
sS'headdresses'
p6581
I5072
sS'bandaged'
p6582
I3352
sS'mercury'
p6583
I6098
sS'toy'
p6584
I103
sS'their'
p6585
I92
sS'top'
p6586
I120
sS'cements'
p6587
I7504
sS'tow'
p6588
I2793
sS'heights'
p6589
I7065
sS'too'
p6590
I2128
sS'wildly'
p6591
I4449
sS'gowns'
p6592
I3339
sS'quinta'
p6593
I7476
sS'toe'
p6594
I2605
sS'urban'
p6595
I756
sS'ceiling'
p6596
I2209
sS'tool'
p6597
I2519
sS'brushes'
p6598
I3070
sS'serve'
p6599
I2161
sS'took'
p6600
I4433
sS'wrapped'
p6601
I1185
sS'western'
p6602
I3683
sS'reclining'
p6603
I4109
sS'overfilled'
p6604
I7760
sS'final'
p6605
I4981
sS'classes'
p6606
I6279
sS'beard'
p6607
I585
sS'bridge'
p6608
I331
sS'donkey'
p6609
I3653
sS'fashion'
p6610
I2934
sS'handkerchief'
p6611
I6989
sS'ran'
p6612
I1763
sS'talking'
p6613
I306
sS'shell'
p6614
I3896
sS'pompoms'
p6615
I5668
sS'pylon'
p6616
I4389
sS'leafs'
p6617
I3539
sS'adhd'
p6618
I4126
sS'leafy'
p6619
I1530
sS'relatively'
p6620
I6108
sS'tho'
p6621
I7792
sS'nipples'
p6622
I6257
sS'thoroughly'
p6623
I7433
sS'steamboat'
p6624
I6558
sS'snow'
p6625
I41
sS'client'
p6626
I7174
sS'rodents'
p6627
I6145
sS'laughed'
p6628
I7877
sS'rides'
p6629
I130
sS'rider'
p6630
I269
sS'though'
p6631
I1213
sS'gesticulates'
p6632
I8117
sS'suntanning'
p6633
I8261
sS'plenty'
p6634
I8174
sS'hortons'
p6635
I5338
sS'glow'
p6636
I3840
sS'peers'
p6637
I2000
sS'treats'
p6638
I4501
sS'flop'
p6639
I3838
sS'metal'
p6640
I377
sS'jersy'
p6641
I6464
sS'swerves'
p6642
I4238
sS'entertaining'
p6643
I7132
sS'policewoman'
p6644
I5104
sS'leaguer'
p6645
I5258
sS'unified'
p6646
I8036
sS'queen'
p6647
I4982
sS'pops'
p6648
I2592
sS'colors'
p6649
I1196
sS'radio'
p6650
I4003
sS'jumpsuites'
p6651
I7303
sS'earth'
p6652
I2750
sS'chewed'
p6653
I3625
sS'sunsets'
p6654
I3635
sS'soocerball'
p6655
I6574
sS'refreshment'
p6656
I4120
sS'spits'
p6657
I5150
sS'knuckle'
p6658
I8265
sS'excitedly'
p6659
I4233
sS'lodge'
p6660
I3614
sS'highchair'
p6661
I8424
sS'sunglasses'
p6662
I197
sS'watch'
p6663
I223
sS'fluid'
p6664
I5417
sS'perfomed'
p6665
I6419
sS'wedding'
p6666
I785
sS'frying'
p6667
I2595
sS'toolbox'
p6668
I5126
sS'pouting'
p6669
I5715
sS'dumpsters'
p6670
I6550
sS'beads'
p6671
I1329
sS'woodlands'
p6672
I6372
sS'rowing'
p6673
I898
sS'licking'
p6674
I953
sS'plush'
p6675
I2724
sS'shots'
p6676
I3379
sS'ruins'
p6677
I3275
sS'swept'
p6678
I7933
sS'skeptically'
p6679
I7459
sS'recieve'
p6680
I7323
sS'noodles'
p6681
I3749
sS'jerseys'
p6682
I1107
sS'oppsing'
p6683
I5940
sS'unpainted'
p6684
I5355
sS'interviewing'
p6685
I4907
sS'grandmother'
p6686
I6826
sS'mud'
p6687
I378
sS'mug'
p6688
I1935
sS'finger'
p6689
I883
sS'approach'
p6690
I3001
sS'discovery'
p6691
I6305
sS'herding'
p6692
I2093
sS'leaping'
p6693
I335
sS'toothbrush'
p6694
I3736
sS'weas'
p6695
I5949
sS'wear'
p6696
I715
sS'news'
p6697
I4356
sS'flowering'
p6698
I3400
sS'mule'
p6699
I4399
sS'blasted'
p6700
I6448
sS'faced'
p6701
I4551
sS'protect'
p6702
I3910
sS'ranger'
p6703
I7273
sS'zepra'
p6704
I8132
sS'participating'
p6705
I1998
sS'players'
p6706
I194
sS'layered'
p6707
I6839
sS'games'
p6708
I2676
sS'faces'
p6709
I532
sS'hypocrites'
p6710
I6969
sS'jello'
p6711
I8425
sS'lenses'
p6712
I6927
sS'competeition'
p6713
I7008
sS'towels'
p6714
I4442
sS'cathing'
p6715
I5286
sS'conference'
p6716
I3933
sS'bathroom'
p6717
I1477
sS'pedaling'
p6718
I3431
sS'beef'
p6719
I8170
sS'bikinis'
p6720
I1512
sS'moutnain'
p6721
I8116
sS'ropes'
p6722
I843
sS'been'
p6723
I1495
sS'blower'
p6724
I4272
sS'tabs'
p6725
I5723
sS'beer'
p6726
I746
sS'trampled'
p6727
I6197
sS'roped'
p6728
I7566
sS'containers'
p6729
I4520
sS'pursing'
p6730
I8097
sS'affixed'
p6731
I8317
sS'craft'
p6732
I2474
sS'rowers'
p6733
I3222
sS'catch'
p6734
I165
sS'glides'
p6735
I2569
sS'glider'
p6736
I1829
sS'lifevests'
p6737
I5999
sS'deeps'
p6738
I5684
sS'cracker'
p6739
I3415
sS'n'
I4092
sS'dashboard'
p6740
I6480
sS'stopping'
p6741
I4405
sS'cracked'
p6742
I3090
sS'hooping'
p6743
I2586
sS'pyramid'
p6744
I2228
sS'provocative'
p6745
I8035
sS'handrail'
p6746
I933
sS'accessories'
p6747
I4978
sS'exterior'
p6748
I6658
sS'interacts'
p6749
I7266
sS'containing'
p6750
I2148
sS'pyrotechnics'
p6751
I4826
sS'nike'
p6752
I3204
sS'pitbulls'
p6753
I6528
sS'forehead'
p6754
I2418
sS'complex'
p6755
I4536
sS'contracption'
p6756
I5600
sS'advances'
p6757
I6973
sS'raling'
p6758
I7626
sS'several'
p6759
I184
sS'youth'
p6760
I1962
sS'basketballs'
p6761
I3553
sS'peaks'
p6762
I2340
sS'roiling'
p6763
I7269
sS'pinstripe'
p6764
I4111
sS'eyeshadow'
p6765
I6785
sS'springtime'
p6766
I8186
sS'characters'
p6767
I2112
sS'sprinkles'
p6768
I7986
sS'cycle'
p6769
I3776
sS'tassel'
p6770
I7963
sS'shortly'
p6771
I6043
sS'forceful'
p6772
I5856
sS'ocean'
p6773
I129
sS'waterskis'
p6774
I3207
sS'mother'
p6775
I777
sS'hearts'
p6776
I3805
sS'jean'
p6777
I1088
sS'dads'
p6778
I4384
sS'shadowed'
p6779
I3577
sS'snowman'
p6780
I2532
sS'laptop'
p6781
I1738
sS'rodent'
p6782
I3969
sS'thumbs'
p6783
I1226
sS'breaching'
p6784
I5779
sS'columned'
p6785
I4962
sS'collars'
p6786
I1756
sS'furry'
p6787
I625
sS'elf'
p6788
I4760
sS'pharmacy'
p6789
I3015
sS'kelp'
p6790
I5205
sS'teenager'
p6791
I1111
sS'clapping'
p6792
I1735
sS'mountian'
p6793
I4319
sS'turquoise'
p6794
I1878
sS'casting'
p6795
I1467
sS'abarrotes'
p6796
I6734
sS'mounds'
p6797
I3639
sS'bands'
p6798
I3852
sS'breaks'
p6799
I2471
sS'pullovers'
p6800
I7854
sS'cultural'
p6801
I6820
sS'descending'
p6802
I1649
sS'judge'
p6803
I3800
sS'burns'
p6804
I8001
sS'burnt'
p6805
I7339
sS'apart'
p6806
I2514
sS'melting'
p6807
I2372
sS'appearing'
p6808
I5814
sS'58'
p6809
I5082
sS'gift'
p6810
I3372
sS'rangler'
p6811
I5480
sS'57'
p6812
I6208
sS'hunt'
p6813
I7847
sS'50'
p6814
I5913
sS'52'
p6815
I4510
sS'officer'
p6816
I1189
sS'hung'
p6817
I3022
sS'petting'
p6818
I1099
sS'proudly'
p6819
I7558
sS'sponge'
p6820
I3018
sS'election'
p6821
I4734
sS'escape'
p6822
I3886
sS'doorstep'
p6823
I4817
sS'teamates'
p6824
I5939
sS'companions'
p6825
I5471
sS'ampitheater'
p6826
I5546
sS'ice'
p6827
I233
sS'everything'
p6828
I7882
sS'icy'
p6829
I1378
sS'christmas'
p6830
I858
sS'flaps'
p6831
I2597
sS'cord'
p6832
I3646
sS'khaki'
p6833
I1515
sS'brawl'
p6834
I8165
sS'corn'
p6835
I1123
sS'cork'
p6836
I5521
sS'casket'
p6837
I7948
sS'engaged'
p6838
I3570
sS'dalmatian'
p6839
I2787
sS'playroom'
p6840
I8390
sS'cowboy'
p6841
I635
sS'attacks'
p6842
I4685
sS'choke'
p6843
I4847
sS'surround'
p6844
I3252
sS'dinner'
p6845
I2018
sS'genocide'
p6846
I2651
sS'duke'
p6847
I4413
sS'donates'
p6848
I7407
sS'civil'
p6849
I5140
sS'obscene'
p6850
I7251
sS'bath'
p6851
I1526
sS'bats'
p6852
I3437
sS'engulf'
p6853
I6186
sS'cafeteria'
p6854
I7399
sS'dobermans'
p6855
I4487
sS'rounds'
p6856
I2745
sS'harly'
p6857
I7463
sS'sunlight'
p6858
I1788
sS'stuck'
p6859
I1405
sS'striding'
p6860
I6140
sS'towing'
p6861
I5027
sS'gin'
p6862
I5188
sS'zaftig'
p6863
I8297
sS'head'
p6864
I159
sS'medium'
p6865
I1070
sS'steers'
p6866
I2313
sS'parasails'
p6867
I2384
sS'attempted'
p6868
I5927
sS'gorgeous'
p6869
I4632
sS'removes'
p6870
I4561
sS'terrior'
p6871
I5489
sS'hear'
p6872
I2571
sS'heap'
p6873
I7594
sS'raingear'
p6874
I8394
sS'chests'
p6875
I4567
sS'mannequins'
p6876
I3472
sS'ruined'
p6877
I7460
sS'decorate'
p6878
I5649
sS'adorn'
p6879
I5478
sS'trim'
p6880
I3186
sS'brightly'
p6881
I849
sS'cobbled'
p6882
I3878
sS'forearm'
p6883
I6835
sS'indy'
p6884
I7550
sS'brighty'
p6885
I7913
sS'swatted'
p6886
I5665
sS'shines'
p6887
I2470
sS'shiner'
p6888
I5146
sS'check'
p6889
I2265
sS'constructed'
p6890
I4899
sS'pipe'
p6891
I794
sS'outstretched'
p6892
I845
sS'faithful'
p6893
I5634
sS'no'
p6894
I471
sS'tip'
p6895
I3882
sS'tim'
p6896
I5337
sS'tin'
p6897
I5166
sS'setting'
p6898
I490
sS'papers'
p6899
I1947
sS'tie'
p6900
I755
sS'juming'
p6901
I7344
sS'halway'
p6902
I7178
sS'squeals'
p6903
I7979
sS'evergreen'
p6904
I4343
sS'picture'
p6905
I142
sS'grasps'
p6906
I3508
sS'football'
p6907
I122
sS'miscellaneous'
p6908
I6029
sS'buddhists'
p6909
I7364
sS'propelling'
p6910
I8412
sS'dappled'
p6911
I3003
sS'younger'
p6912
I783
sS'bullet'
p6913
I4274
sS'sacks'
p6914
I2185
sS'navel'
p6915
I6165
sS'yacht'
p6916
I5223
sS'serious'
p6917
I2153
sS'backward'
p6918
I2463
sS'stacks'
p6919
I3518
sS'coach'
p6920
I1163
sS'rod'
p6921
I2157
sS'focus'
p6922
I2688
sS'leads'
p6923
I1260
sS'displaying'
p6924
I2653
sS'row'
p6925
I914
sS'suckles'
p6926
I6215
sS'hardscape'
p6927
I5252
sS'contemplating'
p6928
I6965
sS'passage'
p6929
I7788
sS'environment'
p6930
I3580
sS'flowered'
p6931
I1092
sS'broadly'
p6932
I4614
sS'keeping'
p6933
I3915
sS'crooswalk'
p6934
I6521
sS'yougn'
p6935
I7276
sS'congregation'
p6936
I6510
sS'artwork'
p6937
I2981
sS'hatted'
p6938
I5231
sS'clouds'
p6939
I942
sS'couches'
p6940
I4143
sS'policeman'
p6941
I1162
sS'posts'
p6942
I1808
sS'brother'
p6943
I1740
sS'cloudy'
p6944
I1173
sS'slouching'
p6945
I4970
sS'quick'
p6946
I5280
sS'dries'
p6947
I8183
sS'says'
p6948
I781
sS'dried'
p6949
I2005
sS'comforting'
p6950
I4924
sS'bales'
p6951
I2807
sS'port'
p6952
I2241
sS'drinks'
p6953
I616
sS'stands'
p6954
I76
sS'tatooed'
p6955
I4960
sS'goes'
p6956
I541
sS'528'
p6957
I7382
sS'bearers'
p6958
I7947
sS'hairy'
p6959
I2600
sS'kakhi'
p6960
I6939
sS'water'
p6961
I23
sS'entertain'
p6962
I5016
sS'baseball'
p6963
I190
sS'groups'
p6964
I3269
sS'skimply'
p6965
I5524
sS'cavort'
p6966
I5526
sS'arc'
p6967
I8406
sS'thirty'
p6968
I6501
sS'healthy'
p6969
I8457
sS'pearls'
p6970
I4234
sS'stomachs'
p6971
I4728
sS'ladys'
p6972
I7495
sS'weird'
p6973
I4013
sS'rafael'
p6974
I7462
sS'challange'
p6975
I6468
sS'emerge'
p6976
I6336
sS'somersaults'
p6977
I8041
sS'tuxedo'
p6978
I3016
sS'peer'
p6979
I4656
sS'touchdown'
p6980
I3907
sS'russell'
p6981
I3048
sS'rasing'
p6982
I7694
sS'sports'
p6983
I559
sS'handles'
p6984
I1741
sS'arabian'
p6985
I3688
sS'prey'
p6986
I2925
sS'australian'
p6987
I3129
sS'smeared'
p6988
I3634
sS'kerry'
p6989
I8298
sS'cashier'
p6990
I6153
sS'chocolate'
p6991
I1504
sS'carnival'
p6992
I767
sS'teases'
p6993
I7296
sS'beers'
p6994
I2842
sS'flapping'
p6995
I2247
sS'sequoia'
p6996
I6156
sS'cases'
p6997
I7808
sS'studded'
p6998
I4493
sS'autumn'
p6999
I1481
sS'judo'
p7000
I6013
sS'sphere'
p7001
I7936
sS'wands'
p7002
I4270
sS'ferry'
p7003
I2608
sS'coral'
p7004
I5243
sS'overpass'
p7005
I1988
sS'performer'
p7006
I1677
sS'earphone'
p7007
I7428
sS'nursing'
p7008
I3689
sS'stream'
p7009
I388
sS'patroling'
p7010
I6353
sS'tinted'
p7011
I4314
sS'dropped'
p7012
I6441
sS'middleaged'
p7013
I5711
sS'sailboat'
p7014
I2039
sS'secured'
p7015
I3870
sS'1'
I4705
sS'fourth'
p7016
I5300
sS'endorsement'
p7017
I7899
sS'dealth'
p7018
I5563
sS'coiled'
p7019
I7825
sS'speaks'
p7020
I1470
sS'begs'
p7021
I4226
sS'crashes'
p7022
I2076
sS'information'
p7023
I4870
sS'motorists'
p7024
I5276
sS'islamic'
p7025
I7559
sS'birthday'
p7026
I1314
sS'tipped'
p7027
I4460
sS'wakeboarder'
p7028
I1802
sS'floral'
p7029
I1460
sS'wagging'
p7030
I8393
sS'classroom'
p7031
I3348
sS'branches'
p7032
I1531
sS'liquid'
p7033
I2553
sS'glancing'
p7034
I4811
sS'lagoon'
p7035
I3507
sS'hilltop'
p7036
I4083
sS'acts'
p7037
I8276
sS'mainly'
p7038
I7701
sS'fangs'
p7039
I3505
sS'blocked'
p7040
I2252
sS'foldable'
p7041
I7411
sS'racedog'
p7042
I7118
sS'redheaded'
p7043
I1221
sS'apex'
p7044
I5744
sS'handgun'
p7045
I2927
sS'cheerleaders'
p7046
I1222
sS'platform'
p7047
I711
sS'offers'
p7048
I2672
sS'farmer'
p7049
I5116
sS'swans'
p7050
I2626
sS'popcycles'
p7051
I7940
sS'lonely'
p7052
I4677
sS'moms'
p7053
I5679
sS'conversations'
p7054
I3243
sS'underneath'
p7055
I963
sS'tulip'
p7056
I5912
sS'feathered'
p7057
I2132
sS'gushing'
p7058
I6460
sS'wagon'
p7059
I1028
sS'name'
p7060
I4039
sS'hawaiin'
p7061
I5719
sS'corners'
p7062
I3005
sS'nodding'
p7063
I5246
sS'trunks'
p7064
I439
sS'populated'
p7065
I4797
sS'torch'
p7066
I8337
sS'catching'
p7067
I395
sS'skydiver'
p7068
I4224
sS'sunrise'
p7069
I3226
sS'tulips'
p7070
I1389
sS'oklahoma'
p7071
I1390
sS'hackey'
p7072
I7084
sS'factory'
p7073
I7075
sS'treading'
p7074
I4132
sS'overflowing'
p7075
I6173
sS'maneuver'
p7076
I2742
sS'hula'
p7077
I707
sS'bolts'
p7078
I6504
sS'hulk'
p7079
I6873
sS'flyer'
p7080
I3340
sS'judea'
p7081
I6967
sS'grab'
p7082
I1281
sS'roosters'
p7083
I7183
sS'flare'
p7084
I7360
sS'dirtbikes'
p7085
I5818
sS'motion'
p7086
I1313
sS'turn'
p7087
I553
sS'place'
p7088
I1280
sS'swine'
p7089
I5484
sS'swing'
p7090
I158
sS'turf'
p7091
I4478
sS'saucers'
p7092
I6330
sS'teammates'
p7093
I3078
sS'origin'
p7094
I7198
sS'pelican'
p7095
I2637
sS'fetched'
p7096
I6604
sS'rafts'
p7097
I2442
sS'budweiser'
p7098
I4648
sS'soaring'
p7099
I2369
sS'fetches'
p7100
I2206
sS'array'
p7101
I4350
sS'pokemon'
p7102
I4776
sS'cheerfully'
p7103
I7695
sS'waterpark'
p7104
I6671
sS'given'
p7105
I4683
sS'district'
p7106
I7280
sS'handcrank'
p7107
I6654
sS'plastic'
p7108
I348
sS'returns'
p7109
I1930
sS'arcade'
p7110
I1548
sS'convention'
p7111
I7090
sS'white'
p7112
I13
sS'gives'
p7113
I923
sS'exploring'
p7114
I4716
sS'hug'
p7115
I1049
sS'terrain'
p7116
I880
sS'cheerleading'
p7117
I2803
sS'hut'
p7118
I1709
sS'released'
p7119
I4658
sS'imagery'
p7120
I7941
sS'seedoo'
p7121
I7224
sS'holder'
p7122
I4687
sS'wide'
p7123
I667
sS'computer'
p7124
I984
sS'cards'
p7125
I1705
sS'driveway'
p7126
I1505
sS'pre'
p7127
I3748
sS'twisting'
p7128
I2589
sS'desperate'
p7129
I8294
sS'pro'
p7130
I2579
sS'straddles'
p7131
I4070
sS'ant'
p7132
I4955
sS'tanning'
p7133
I6210
sS'sells'
p7134
I2681
sS'moutains'
p7135
I5167
sS'any'
p7136
I4661
sS'marathon'
p7137
I1907
sS'superman'
p7138
I2392
sS'silhouette'
p7139
I1252
sS'homerun'
p7140
I7959
sS'dining'
p7141
I2828
sS'resembling'
p7142
I7604
sS'surf'
p7143
I507
sS'urge'
p7144
I7871
sS'sure'
p7145
I7146
sS'multiple'
p7146
I1613
sS'equestrian'
p7147
I2858
sS'joker'
p7148
I8039
sS'falls'
p7149
I827
sS'ciff'
p7150
I5348
sS'visitors'
p7151
I4635
sS'cleared'
p7152
I6158
sS'littering'
p7153
I5643
sS'pencils'
p7154
I5648
sS'seafood'
p7155
I6845
sS'proud'
p7156
I6603
sS'hungry'
p7157
I6961
sS'snowmobiling'
p7158
I4100
sS'beaded'
p7159
I2708
sS'senior'
p7160
I4638
sS'swordfighting'
p7161
I5507
sS'slope'
p7162
I520
sS'spaced'
p7163
I5981
sS'wooly'
p7164
I7485
sS'applauding'
p7165
I7451
sS'cheap'
p7166
I5591
sS'dandelions'
p7167
I3406
sS'trot'
p7168
I4364
sS'woolen'
p7169
I5567
sS'ractrack'
p7170
I6799
sS'brige'
p7171
I7904
sS'gull'
p7172
I3532
sS'written'
p7173
I2174
sS'crime'
p7174
I5729
sS'wood'
p7175
I537
sS'partake'
p7176
I6283
sS'wool'
p7177
I4784
sS'lighted'
p7178
I4255
sS'viewpoint'
p7179
I7771
sS'jazz'
p7180
I6562
sS'begging'
p7181
I2322
sS'bareback'
p7182
I8273
sS'lighter'
p7183
I3787
sS'dye'
p7184
I3818
sS'hedge'
p7185
I8013
sS'neither'
p7186
I6877
sS'aluminum'
p7187
I5230
sS'enterance'
p7188
I8084
sS'naked'
p7189
I685
sS'penguins'
p7190
I3656
sS'clowns'
p7191
I1946
sS'barbeque'
p7192
I8189
sS'microphones'
p7193
I3498
sS'poling'
p7194
I4814
sS'picnic'
p7195
I921
sS'encourages'
p7196
I8120
sS'1923'
p7197
I8219
sS'college'
p7198
I1941
sS'ignores'
p7199
I7158
sS'parking'
p7200
I543
sS'collects'
p7201
I3759
sS'encouraged'
p7202
I8402
sS'surfaces'
p7203
I7154
sS'fails'
p7204
I7961
sS'bicyclist'
p7205
I597
sS'ways'
p7206
I5047
sS'shirtness'
p7207
I5827
sS'outside'
p7208
I80
sS'hurrying'
p7209
I3959
sS'guitar'
p7210
I291
sS'diners'
p7211
I3058
sS'come'
p7212
I1786
sS'22'
p7213
I6413
sS'region'
p7214
I3585
sS'priests'
p7215
I3952
sS'quiet'
p7216
I4205
sS'berry'
p7217
I6375
sS'snarls'
p7218
I4195
sS'railway'
p7219
I3999
sS'snarly'
p7220
I5433
sS'key'
p7221
I8111
sS'color'
p7222
I1762
sS'armchair'
p7223
I7473
sS'pot'
p7224
I1888
sS'hunched'
p7225
I3960
sS'period'
p7226
I2774
sS'pop'
p7227
I2271
sS'pole'
p7228
I304
sS'pom'
p7229
I4352
sS'polo'
p7230
I2002
sS'dribbled'
p7231
I5901
sS'poll'
p7232
I5396
sS'turkey'
p7233
I4001
sS'teammate'
p7234
I1429
sS'canoers'
p7235
I6482
sS'coupe'
p7236
I6223
sS'deposited'
p7237
I6964
sS'peaceful'
p7238
I3487
sS'helicopter'
p7239
I1779
sS'cords'
p7240
I2482
sS'hardly'
p7241
I7244
sS'schoolboy'
p7242
I7109
sS'engine'
p7243
I2704
sS'direction'
p7244
I1067
sS'tiger'
p7245
I1262
sS'eatery'
p7246
I6239
sS'cleats'
p7247
I5767
sS'cresting'
p7248
I8470
sS'attentive'
p7249
I4360
sS'spirit'
p7250
I6050
sS'pilot'
p7251
I4843
sS'case'
p7252
I1321
sS'shaft'
p7253
I4095
sS'onesie'
p7254
I5837
sS'spiderman'
p7255
I1374
sS'twigs'
p7256
I4448
sS'cash'
p7257
I3265
sS'cast'
p7258
I1698
sS'slippery'
p7259
I4534
sS'mound'
p7260
I968
sS'slippers'
p7261
I4108
sS'vest'
p7262
I428
sS'punches'
p7263
I2771
sS'ridable'
p7264
I5908
sS'telephone'
p7265
I1999
sS'couples'
p7266
I2193
sS'someone'
p7267
I297
sS'gonzaga'
p7268
I4371
sS'rungs'
p7269
I5712
sS'helmet'
p7270
I168
sS'participant'
p7271
I4707
sS'projector'
p7272
I7124
sS'graffti'
p7273
I6571
sS'emty'
p7274
I8008
sS'locking'
p7275
I4072
sS'trip'
p7276
I2786
sS'bows'
p7277
I2865
sS'buys'
p7278
I8064
sS'aross'
p7279
I5159
sS'barefoot'
p7280
I754
sS'booths'
p7281
I2604
sS'nest'
p7282
I8474
sS'driver'
p7283
I1015
sS'drives'
p7284
I751
sS'driven'
p7285
I1863
sS'persons'
p7286
I3551
sS'statue'
p7287
I602
sS'muffler'
p7288
I6493
sS'changing'
p7289
I4869
sS'cartoon'
p7290
I4670
sS'implements'
p7291
I5571
sS'recital'
p7292
I8381
sS'without'
p7293
I1027
sS'flakes'
p7294
I6931
sS'deflated'
p7295
I2334
sS'model'
p7296
I2893
sS'bodies'
p7297
I3343
sS'desolate'
p7298
I3918
sS'lifevest'
p7299
I7999
sS'captures'
p7300
I5165
sS'guided'
p7301
I3433
sS'kilt'
p7302
I2167
sS'actions'
p7303
I5780
sS'lavish'
p7304
I4931
sS'kill'
p7305
I5541
sS'kneeling'
p7306
I915
sS'captured'
p7307
I3844
sS'halfway'
p7308
I4663
sS'blow'
p7309
I1103
sS'rose'
p7310
I4977
sS'seems'
p7311
I3039
sS'except'
p7312
I2591
sS'churns'
p7313
I5731
sS'blog'
p7314
I6280
sS'lets'
p7315
I4327
sS'shrine'
p7316
I3194
sS'humping'
p7317
I3940
sS'samples'
p7318
I3438
sS'hind'
p7319
I634
sS'engulfed'
p7320
I3974
sS'poised'
p7321
I3276
sS'disrupt'
p7322
I7683
sS'carpeting'
p7323
I5470
sS'easily'
p7324
I7085
sS'squating'
p7325
I6038
sS'styled'
p7326
I5834
sS'furniture'
p7327
I1934
sS'towel'
p7328
I1204
sS'photographs'
p7329
I1432
sS'patrick'
p7330
I5121
sS'shoeless'
p7331
I3765
sS'towed'
p7332
I2159
sS'oddly'
p7333
I4140
sS'footballs'
p7334
I5944
sS'donations'
p7335
I7233
sS'tower'
p7336
I3722
sS'passers'
p7337
I6639
sS'kayacker'
p7338
I5578
sS'competition'
p7339
I680
sS'cowboys'
p7340
I2255
sS'slice'
p7341
I4643
sS'caribbean'
p7342
I5391
sS'shirtless'
p7343
I409
sS'stops'
p7344
I1593
sS'moon'
p7345
I2667
sS'buddha'
p7346
I3697
sS'googles'
p7347
I5015
sS'sitts'
p7348
I5761
sS'beached'
p7349
I5661
sS'nails'
p7350
I2896
sS'inspect'
p7351
I7228
sS'calmer'
p7352
I5581
sS'wades'
p7353
I1715
sS'pinstriped'
p7354
I7040
sS'ok'
p7355
I3101
sS'oh'
p7356
I5890
sS'jeep'
p7357
I909
sS'of'
p7358
I11
sS'od'
p7359
I5190
sS'stand'
p7360
I114
sS'waded'
p7361
I7289
sS'ox'
p7362
I7609
sS'ou'
p7363
I4468
sS'ot'
p7364
I7525
sS'or'
p7365
I472
sS'ladies'
p7366
I717
sS'instruments'
p7367
I823
sS'garb'
p7368
I2113
sS'garner'
p7369
I8296
sS'rising'
p7370
I3747
sS'jetskiing'
p7371
I6400
sS'whales'
p7372
I3345
sS'there'
p7373
I188
sS'edges'
p7374
I7905
sS'ferris'
p7375
I4506
sS'retangular'
p7376
I7696
sS'valley'
p7377
I1166
sS'fish'
p7378
I676
sS'perforced'
p7379
I6488
sS'illuminated'
p7380
I4450
sS'vested'
p7381
I6995
sS'amongst'
p7382
I2102
sS'idea'
p7383
I7067
sS'hods'
p7384
I4333
sS'orangesunset'
p7385
I8193
sS'applying'
p7386
I3950
sS'moustaches'
p7387
I6934
sS'wearubg'
p7388
I5486
sS'nightlife'
p7389
I6876
sS'grasp'
p7390
I4008
sS'flats'
p7391
I5447
sS'grass'
p7392
I40
sS'creeping'
p7393
I5879
sS'castles'
p7394
I4541
sS'toilet'
p7395
I1691
sS'haloween'
p7396
I6586
sS'backstand'
p7397
I6739
sS'cbs'
p7398
I5010
sS'pensively'
p7399
I6398
sS'cringes'
p7400
I6978
sS'russel'
p7401
I6402
sS'safron'
p7402
I6668
sS'beds'
p7403
I3435
sS'fiddles'
p7404
I6028
sS'heather'
p7405
I5271
sS'bicycling'
p7406
I4901
sS'swords'
p7407
I1661
sS'rubber'
p7408
I1090
sS'roses'
p7409
I3735
sS'5'
I1315
sS'trash'
p7410
I2055
sS'winking'
p7411
I3604
sS'pillows'
p7412
I3162
sS'separate'
p7413
I4572
sS'symbol'
p7414
I3454
sS'midair'
p7415
I241
sS'includes'
p7416
I4502
sS'stocky'
p7417
I6606
sS'brass'
p7418
I4717
sS'spouse'
p7419
I5885
sS'lipstick'
p7420
I2393
sS'wife'
p7421
I3983
sS'curve'
p7422
I1141
sS'curvy'
p7423
I3314
sS'rimmed'
p7424
I3655
sS'apparel'
p7425
I4840
sS'peeks'
p7426
I1810
sS'tanned'
p7427
I4604
sS'all'
p7428
I333
sS'pring'
p7429
I6595
sS'lace'
p7430
I6447
sS'chinese'
p7431
I1345
sS'lack'
p7432
I3306
sS'walkng'
p7433
I7182
sS'surgical'
p7434
I4793
sS'disc'
p7435
I1176
sS'dish'
p7436
I1781
sS'follow'
p7437
I1581
sS'disk'
p7438
I2201
sS'earmuffs'
p7439
I5100
sS'apartment'
p7440
I2494
sS'retreiving'
p7441
I7919
sS'lining'
p7442
I2367
sS'sparkling'
p7443
I3250
sS'crest'
p7444
I4456
sS'tethered'
p7445
I2748
sS'activities'
p7446
I7924
sS'woman'
p7447
I17
sS'payfully'
p7448
I5807
sS'song'
p7449
I2594
sS'far'
p7450
I1663
sS'grinds'
p7451
I1132
sS'soled'
p7452
I4629
sS'fat'
p7453
I1914
sS'simpsons'
p7454
I5148
sS'fan'
p7455
I1772
sS'lited'
p7456
I8391
sS'vacationing'
p7457
I5222
sS'ticket'
p7458
I2081
sS'soles'
p7459
I8357
sS'readied'
p7460
I5870
sS'cascading'
p7461
I4641
sS'trench'
p7462
I2381
sS'undone'
p7463
I6176
sS'saxophone'
p7464
I2703
sS'neckless'
p7465
I5317
sS'snapshot'
p7466
I8158
sS'ten'
p7467
I2425
sS'tea'
p7468
I2999
sS'tee'
p7469
I2278
sS'jib'
p7470
I7326
sS'invention'
p7471
I5394
sS'design'
p7472
I4260
sS'abseiling'
p7473
I3645
sS'what'
p7474
I1339
sS'sub'
p7475
I7318
sS'sun'
p7476
I399
sS'sum'
p7477
I7077
sS'crust'
p7478
I4490
sS'hovering'
p7479
I2936
sS'bodyboarder'
p7480
I8305
sS'suv'
p7481
I1577
sS'racing'
p7482
I229
sS'guns'
p7483
I1985
sS'sunbathers'
p7484
I4259
sS'toes'
p7485
I4211
sS'tags'
p7486
I2263
sS'raked'
p7487
I6752
sS'directions'
p7488
I1983
sS'skidded'
p7489
I7880
sS'observing'
p7490
I2327
sS'dobbermen'
p7491
I5390
sS'naval'
p7492
I7800
sS'handlers'
p7493
I5382
sS'miniature'
p7494
I2658
sS'milkshake'
p7495
I2976
sS'camcorder'
p7496
I2625
sS'suntan'
p7497
I8259
sS'sticking'
p7498
I673
sS'solitude'
p7499
I7328
sS'texts'
p7500
I6938
sS'armoire'
p7501
I6743
sS'snub'
p7502
I5798
sS'smal'
p7503
I6410
sS'donuts'
p7504
I4152
sS'photograhi'
p7505
I7120
sS'shite'
p7506
I8144
sS'piggyback'
p7507
I3661
sS'branded'
p7508
I4649
sS'minor'
p7509
I6672
sS'horses'
p7510
I449
sS'flat'
p7511
I1578
sS'israel'
p7512
I4865
sS'newlyweds'
p7513
I4877
sS'israei'
p7514
I6988
sS'grabbing'
p7515
I1562
sS'operators'
p7516
I7554
sS'owners'
p7517
I1909
sS'flag'
p7518
I429
sS'stick'
p7519
I127
sS'saharan'
p7520
I7319
sS'wrestled'
p7521
I5437
sS'sleeveless'
p7522
I1995
sS'policemen'
p7523
I2248
sS'wrestler'
p7524
I803
sS'v'
I4682
sS'aveda'
p7525
I8328
sS'trackside'
p7526
I6570
sS'computers'
p7527
I2631
sS'pony'
p7528
I1638
sS'challenging'
p7529
I2428
sS'protects'
p7530
I3705
sS'pond'
p7531
I435
sS'pong'
p7532
I4984
sS'swung'
p7533
I3011
sS'earpiece'
p7534
I4030
sS'extinguishes'
p7535
I5289
sS'court'
p7536
I506
sS'backpacking'
p7537
I2311
sS'khakis'
p7538
I5481
sS'rather'
p7539
I7668
sS'breaking'
p7540
I1491
sS'speeding'
p7541
I2390
sS'goat'
p7542
I1745
sS'sprinking'
p7543
I7987
sS'headress'
p7544
I5183
sS'panoramic'
p7545
I8211
sS'lighting'
p7546
I1669
sS'softball'
p7547
I678
sS'sloppy'
p7548
I8321
sS'concentrating'
p7549
I7190
sS'short'
p7550
I526
sS'shady'
p7551
I3261
sS'supervision'
p7552
I5228
sS'footed'
p7553
I8458
sS'shore'
p7554
I285
sS'shade'
p7555
I1419
sS'aggresively'
p7556
I7352
sS'lifeguards'
p7557
I5640
sS'headlight'
p7558
I7139
sS'helment'
p7559
I5106
sS'gauges'
p7560
I4076
sS'developed'
p7561
I7724
sS'alotment'
p7562
I6366
sS'mission'
p7563
I6024
sS'disabled'
p7564
I6530
sS'cook'
p7565
I4000
sS'scientist'
p7566
I5407
sS'downsteps'
p7567
I7003
sS'handrails'
p7568
I5113
sS'style'
p7569
I1474
sS'glide'
p7570
I7763
sS'misspelled'
p7571
I6491
sS'mattress'
p7572
I3751
sS'resort'
p7573
I2332
sS'wakeboards'
p7574
I2751
sS'bout'
p7575
I3737
sS'soccer'
p7576
I104
sS'alter'
p7577
I4881
sS'brwon'
p7578
I8468
sS'return'
p7579
I2905
sS'sucking'
p7580
I2146
sS'hunter'
p7581
I4743
sS'videotaped'
p7582
I3172
sS'parasurfer'
p7583
I4504
sS'rellow'
p7584
I5686
sS'huskies'
p7585
I3093
sS'videotapes'
p7586
I4976
sS'bigger'
p7587
I1898
sS'level'
p7588
I6092
sS'cobblestones'
p7589
I4509
sS'snowboarders'
p7590
I1717
sS'fortess'
p7591
I6645
sS'athletics'
p7592
I7348
sS'retrievers'
p7593
I3618
sS'tilted'
p7594
I2993
sS'pirates'
p7595
I2740
sS'weight'
p7596
I8492
sS'wilbert'
p7597
I8301
sS'suprised'
p7598
I7159
sS'scratching'
p7599
I2823
sS'inflated'
p7600
I2660
sS'twists'
p7601
I5629
sS'alcohol'
p7602
I4659
sS'puckering'
p7603
I4286
sS'hill'
p7604
I132
sS'caucasian'
p7605
I6174
sS'hailing'
p7606
I5171
sS'wisconsin'
p7607
I5933
sS'roofs'
p7608
I7148
sS'cookie'
p7609
I2884
sS'teach'
p7610
I4923
sS'guy'
p7611
I242
sS'thrown'
p7612
I748
sS'thread'
p7613
I7255
sS'seahorse'
p7614
I6334
sS'rollerblader'
p7615
I1344
sS'rollerblades'
p7616
I993
sS'circuit'
p7617
I2149
sS'snowboarding'
p7618
I662
sS'fallen'
p7619
I552
sS'throws'
p7620
I566
sS'feed'
p7621
I3077
sS'dine'
p7622
I7419
sS'feel'
p7623
I7005
sS'churning'
p7624
I3862
sS'fancy'
p7625
I1261
sS'feet'
p7626
I469
sS'sailor'
p7627
I2854
sS'soapy'
p7628
I5178
sS'bland'
p7629
I8012
sS'traveler'
p7630
I7324
sS'passes'
p7631
I1239
sS'story'
p7632
I3342
sS'parachutist'
p7633
I3563
sS'leading'
p7634
I1236
sS'interact'
p7635
I2434
sS'coasts'
p7636
I6864
sS'rails'
p7637
I2419
sS'collar'
p7638
I255
sS'stork'
p7639
I7232
sS'swarm'
p7640
I5607
sS'storm'
p7641
I1903
sS'pitted'
p7642
I7186
sS'syrup'
p7643
I3602
sS'outcropping'
p7644
I2323
sS'store'
p7645
I389
sS'gleefully'
p7646
I5472
sS'hotel'
p7647
I2192
sS'rifle'
p7648
I3026
sS'uncut'
p7649
I1897
sS'surfboard'
p7650
I323
sS'king'
p7651
I7625
sS'kind'
p7652
I2829
sS'double'
p7653
I2920
sS'aims'
p7654
I2661
sS'stall'
p7655
I1987
sS'outdoors'
p7656
I277
sS'dane'
p7657
I3700
sS'tongues'
p7658
I2380
sS'motivation'
p7659
I6730
sS'uniforms'
p7660
I380
sS'skyscrapers'
p7661
I5109
sS'hanglider'
p7662
I6190
sS'mma'
p7663
I7831
sS'needs'
p7664
I7571
sS'booklets'
p7665
I7563
sS'alike'
p7666
I1866
sS'cleaned'
p7667
I5179
sS'squints'
p7668
I4646
sS'rugs'
p7669
I5151
sS'athelete'
p7670
I6653
sS'stiars'
p7671
I7632
sS'cropped'
p7672
I4491
sS'peirced'
p7673
I6258
sS'banjo'
p7674
I4665
sS'buff'
p7675
I8345
sS'electric'
p7676
I1536
sS'twirl'
p7677
I4566
sS'reach'
p7678
I1069
sS'react'
p7679
I6547
sS'cigarette'
p7680
I522
sS'75'
p7681
I7628
sS'storefronts'
p7682
I4802
sS'nothing'
p7683
I6125
sS'measured'
p7684
I4189
sS'patterned'
p7685
I1950
sS'windows'
p7686
I1722
sS'flighht'
p7687
I7163
sS'traditional'
p7688
I1634
sS'scantily'
p7689
I2521
sS'flattened'
p7690
I7439
sS'lying'
p7691
I425
sS'stones'
p7692
I1972
sS'bending'
p7693
I1083
sS'asphalt'
p7694
I2063
sS'ballplayer'
p7695
I3992
sS'focusing'
p7696
I6031
sS'cds'
p7697
I7209
sS'howls'
p7698
I8184
sS'font'
p7699
I6027
sS'whiffle'
p7700
I6630
sS'camel'
p7701
I1443
sS'sheppard'
p7702
I4386
sS'punkish'
p7703
I8314
sS'grazes'
p7704
I3867
sS'bellbottoms'
p7705
I4403
sS'hip'
p7706
I3217
sS'shepherd'
p7707
I556
sS'his'
p7708
I28
sS'triangle'
p7709
I4993
sS'cots'
p7710
I3573
sS'bend'
p7711
I1125
sS'whistle'
p7712
I1558
sS'fastest'
p7713
I7358
sS'stubbled'
p7714
I7637
sS'him'
p7715
I147
sS'nibbles'
p7716
I8315
sS'necked'
p7717
I2315
sS'investigate'
p7718
I3982
sS'activity'
p7719
I3597
sS'engraved'
p7720
I5962
sS'snowstorm'
p7721
I4305
sS'ballerinas'
p7722
I3389
sS'bars'
p7723
I753
sS'art'
p7724
I811
sS'dump'
p7725
I6581
sS'choreographed'
p7726
I7591
sS'gaurdian'
p7727
I7958
sS'barb'
p7728
I4746
sS'bare'
p7729
I1291
sS'are'
p7730
I16
sS'bark'
p7731
I2585
sS'arm'
p7732
I318
sS'sportswear'
p7733
I5050
sS'barn'
p7734
I1640
sS'recording'
p7735
I3347
sS'learns'
p7736
I4602
sS'cosplay'
p7737
I7593
sS'unpaved'
p7738
I5037
sS'blurs'
p7739
I7082
sS'drooping'
p7740
I7879
sS'various'
p7741
I1307
sS'plywood'
p7742
I8077
sS'certificate'
p7743
I7860
sS'numerous'
p7744
I2557
sS'solo'
p7745
I7083
sS'paisley'
p7746
I5543
sS'muslim'
p7747
I3434
sS'recently'
p7748
I2309
sS'creating'
p7749
I2135
sS'outfir'
p7750
I7848
sS'sole'
p7751
I4777
sS'outfit'
p7752
I302
sS'opposition'
p7753
I5929
sS'inertia'
p7754
I6427
sS'bronze'
p7755
I8324
sS'c'
I6034
sS'blazer'
p7756
I4539
sS'bodyboard'
p7757
I3843
sS'movers'
p7758
I6638
sS'halmets'
p7759
I6538
sS'roman'
p7760
I4883
sS'landform'
p7761
I5656
sS'finds'
p7762
I5136
sS'flies'
p7763
I413
sS'nipping'
p7764
I4543
sS'village'
p7765
I2254
sS'treefilled'
p7766
I6021
sS'goats'
p7767
I2495
sS'suspenders'
p7768
I2860
sS'dishtowel'
p7769
I6497
sS'teaches'
p7770
I2590
sS'overlook'
p7771
I2441
sS'political'
p7772
I3334
sS'teacher'
p7773
I2932
sS'whom'
p7774
I2820
sS'pf'
p7775
I8141
sS'brick'
p7776
I282
sS'whoa'
p7777
I6198
sS'skyward'
p7778
I4492
sS'siting'
p7779
I3390
sS'referee'
p7780
I989
sS'flight'
p7781
I786
sS'1950s'
p7782
I8433
sS'sending'
p7783
I4740
sS'quintet'
p7784
I5361
sS'firefighters'
p7785
I3881
sS'slideshow'
p7786
I6690
sS'condoms'
p7787
I3365
sS'rocking'
p7788
I2509
sS'instructor'
p7789
I2699
sS'plants'
p7790
I778
sS'guarding'
p7791
I1970
sS'frozen'
p7792
I1077
sS'balloons'
p7793
I1024
sS'parachutes'
p7794
I2743
sS'quarterpipe'
p7795
I4675
sS'barricade'
p7796
I3256
sS'moustache'
p7797
I2497
sS'strapless'
p7798
I3742
sS'leans'
p7799
I640
sS'rollerskating'
p7800
I1694
sS'obstacle'
p7801
I358
sS'rif'
p7802
I7262
sS'surronded'
p7803
I7381
sS'currents'
p7804
I5575
sS'panasonic'
p7805
I7949
sS'waterside'
p7806
I3300
sS'propping'
p7807
I5115
sS'wierd'
p7808
I7981
sS'kimono'
p7809
I3981
sS'shire'
p7810
I7640
sS'widely'
p7811
I8127
sS'razzling'
p7812
I5427
sS'daughters'
p7813
I4591
sS'higher'
p7814
I2867
sS'arrives'
p7815
I7975
sS'fastens'
p7816
I6993
sS'cement'
p7817
I534
sS'flown'
p7818
I6101
sS'moving'
p7819
I804
sS'robust'
p7820
I8093
sS'lower'
p7821
I2033
sS'noodle'
p7822
I3279
sS'congregated'
p7823
I6797
sS'bouncey'
p7824
I5876
sS'cheek'
p7825
I1283
sS'chickens'
p7826
I1939
sS'bouncer'
p7827
I5032
sS'horro'
p7828
I6584
sS'cheer'
p7829
I1844
sS'edge'
p7830
I286
sS'machinery'
p7831
I6374
sS'bounced'
p7832
I3465
sS'self'
p7833
I2450
sS'breastfeeding'
p7834
I6214
sS'pigeons'
p7835
I996
sS'ependent'
p7836
I6267
sS'competitive'
p7837
I3081
sS'tables'
p7838
I1282
sS'loading'
p7839
I2674
sS'tablet'
p7840
I4879
sS'k2'
p7841
I7299
sS'workers'
p7842
I1347
sS'acrobatics'
p7843
I4599
sS'freefall'
p7844
I6627
sS'customers'
p7845
I5147
sS'vendor'
p7846
I1724
sS'doorbell'
p7847
I4254
sS'plungles'
p7848
I8026
sS'entangled'
p7849
I4749
sS'glittery'
p7850
I4192
sS'modifications'
p7851
I5341
sS'seperate'
p7852
I7315
sS'shaped'
p7853
I1059
sS'confront'
p7854
I5822
sS'shapes'
p7855
I3236
sS'nipple'
p7856
I3813
sS'aquestrian'
p7857
I7715
sS'sprinklers'
p7858
I1295
sS'jumpsuits'
p7859
I4764
sS'wallride'
p7860
I6450
sS'piglet'
p7861
I4261
sS'eluding'
p7862
I5932
sS'streaming'
p7863
I3543
sS'litter'
p7864
I2739
sS'paraglide'
p7865
I6012
sS'clown'
p7866
I1051
sS'mudfight'
p7867
I8051
sS'yerba'
p7868
I8146
sS'saucer'
p7869
I7413
sS'serena'
p7870
I7456
sS'prow'
p7871
I5561
sS'prop'
p7872
I6641
sS'shamrocks'
p7873
I5123
sS'tends'
p7874
I6212
sS'grimmaces'
p7875
I5574
sS'jumpy'
p7876
I7424
sS'jumps'
p7877
I68
sS'perpendicular'
p7878
I4757
sS'zombie'
p7879
I3913
sS'aloft'
p7880
I8083
sS'upraised'
p7881
I2785
sS'cannons'
p7882
I8373
sS'intense'
p7883
I3506
sS'handled'
p7884
I4377
sS'pipeline'
p7885
I6042
sS'cautious'
p7886
I5585
sS'borader'
p7887
I7193
sS'housekeeping'
p7888
I7731
sS'violins'
p7889
I5359
sS'completing'
p7890
I3810
sS'firing'
p7891
I1929
sS'surfers'
p7892
I1256
sS'range'
p7893
I1072
sS'greets'
p7894
I5120
sS'complimentary'
p7895
I5213
sS'cutoff'
p7896
I5663
sS'swimmies'
p7897
I5114
sS'mustached'
p7898
I4457
sS'momma'
p7899
I7744
sS'canal'
p7900
I1919
sS'rows'
p7901
I1366
sS'lone'
p7902
I489
sS'amidst'
p7903
I1475
sS'baggy'
p7904
I5267
sS'vendors'
p7905
I8106
sS'andy'
p7906
I4991
sS'sections'
p7907
I5467
sS'mountains'
p7908
I247
sS'skewers'
p7909
I7567
sS'belays'
p7910
I5160
sS'girlfriends'
p7911
I8080
sS'cloth'
p7912
I966
sS'crank'
p7913
I3926
sS'filed'
p7914
I8178
sS'upright'
p7915
I3690
sS'crane'
p7916
I1572
sS'raising'
p7917
I1364
sS'landscaped'
p7918
I5753
sS'fries'
p7919
I4034
sS'bigg'
p7920
I8203
sS'cartwheel'
p7921
I2163
sS'called'
p7922
I2564
sS'freak'
p7923
I4613
sS'soars'
p7924
I2525
sS'coordinator'
p7925
I6628
sS'warning'
p7926
I7188
sS'rally'
p7927
I1761
sS'graham'
p7928
I8081
sS'rainbow'
p7929
I1192
sS'rainy'
p7930
I2510
sS'hurridly'
p7931
I6987
sS'peach'
p7932
I2353
sS'peace'
p7933
I1035
sS'backs'
p7934
I937
sS'saffron'
p7935
I6786
sS'bicylist'
p7936
I6682
sS'towers'
p7937
I4890
sS'parlor'
p7938
I2977
sS'gra'
p7939
I8020
sS'mock'
p7940
I3598
sS'nice'
p7941
I1922
sS'dale'
p7942
I4582
sS'vaulting'
p7943
I3280
sS'mustard'
p7944
I4182
sS'breasts'
p7945
I4947
sS'helping'
p7946
I1058
sS'donkeys'
p7947
I3414
sS'insect'
p7948
I2603
sS'wakeboarding'
p7949
I1516
sS'allowing'
p7950
I6461
sS'posters'
p7951
I2593
sS'dragged'
p7952
I3037
sS'weights'
p7953
I5138
sS'broad'
p7954
I8465
sS'nash'
p7955
I5519
sS'buffalo'
p7956
I4781
sS'once'
p7957
I4994
sS'mardi'
p7958
I4062
sS'wrestle'
p7959
I631
sS'steve'
p7960
I5518
sS'windy'
p7961
I3684
sS'torii'
p7962
I7030
sS'sandpit'
p7963
I4540
sS'winds'
p7964
I2730
sS'battons'
p7965
I7340
sS'dumbbell'
p7966
I4075
sS'weimaraner'
p7967
I4206
sS'roofed'
p7968
I7243
sS'kimonos'
p7969
I3945
sS'squeezing'
p7970
I2719
sS'include'
p7971
I7216
sS'fences'
p7972
I3159
sS'dramatically'
p7973
I3358
sS'breathing'
p7974
I4121
sS'ladle'
p7975
I4680
sS'scattered'
p7976
I5474
sS'spool'
p7977
I4651
sS'spoon'
p7978
I2285
sS'graphic'
p7979
I4480
sS'bounding'
p7980
I1831
sS'planked'
p7981
I5339
sS'drinking'
p7982
I422
sS'converge'
p7983
I5621
sS'tutu'
p7984
I1298
sS'notes'
p7985
I3084
sS'turbaned'
p7986
I7487
sS'bmxer'
p7987
I5297
sS'smaller'
p7988
I567
sS'plows'
p7989
I6763
sS'folds'
p7990
I6793
sS'dooorway'
p7991
I7331
sS'contorted'
p7992
I5594
sS'wrestling'
p7993
I628
sS'procession'
p7994
I7024
sS'perched'
p7995
I2504
sS'traveling'
p7996
I1452
sS'south'
p7997
I6225
sS'waiting'
p7998
I367
sS'worships'
p7999
I5896
sS'attire'
p8000
I1110
sS'pasts'
p8001
I6660
sS'bowled'
p8002
I6738
sS'checkstand'
p8003
I8385
sS'kangaroo'
p8004
I2643
sS'pushing'
p8005
I595
sS'oars'
p8006
I3830
sS'viewfinder'
p8007
I8398
sS'slates'
p8008
I7523
sS'sexy'
p8009
I4799
sS'cyclist'
p8010
I545
sS'metro'
p8011
I4686
sS'distressed'
p8012
I5615
sS'larger'
p8013
I895
sS'shades'
p8014
I2302
sS'leaving'
p8015
I1117
sS'headless'
p8016
I5303
sS'rattan'
p8017
I8387
sS'submerged'
p8018
I2168
sS'shaded'
p8019
I3076
sS'pajama'
p8020
I3126
sS'reds'
p8021
I7034
sS'shovel'
p8022
I1560
sS'slinging'
p8023
I4946
sS'scales'
p8024
I1422
sS'noy'
p8025
I6079
sS'motor'
p8026
I1854
sS'cheerleader'
p8027
I1441
sS'savanah'
p8028
I8365
sS'noce'
p8029
I6434
sS'fireplug'
p8030
I8015
sS'fed'
p8031
I3858
sS'from'
p8032
I74
sS'figure'
p8033
I1409
sS'iced'
p8034
I3422
sS'frog'
p8035
I2663
sS'few'
p8036
I650
sS'weeping'
p8037
I5810
sS'icey'
p8038
I6998
sS'keffiyahs'
p8039
I8485
sS'possession'
p8040
I2848
sS'jailbird'
p8041
I6779
sS'clever'
p8042
I5244
sS'porch'
p8043
I1138
sS'musician'
p8044
I2213
sS'impress'
p8045
I7955
sS'antennae'
p8046
I7172
sS'rabbit'
p8047
I2857
sS'brochure'
p8048
I4085
sS'backstrokes'
p8049
I7929
sS'women'
p8050
I97
sS'skydiving'
p8051
I4640
sS'getting'
p8052
I359
sS'stroke'
p8053
I7155
sS'dusted'
p8054
I4365
sS'condominium'
p8055
I6192
sS'posing'
p8056
I192
sS'biscuit'
p8057
I6288
sS'proof'
p8058
I5513
sS'tap'
p8059
I3111
sS'flaring'
p8060
I7675
sS'tax'
p8061
I5009
sS'attrative'
p8062
I5523
sS'tag'
p8063
I1599
sS'something'
p8064
I172
sS'sillhouttes'
p8065
I8216
sS'tan'
p8066
I154
sS'tak'
p8067
I5301
sS'posign'
p8068
I5838
sS'sip'
p8069
I5030
sS'sit'
p8070
I167
sS'bungee'
p8071
I1598
sS'six'
p8072
I517
sS'sidewalks'
p8073
I7953
sS'struggles'
p8074
I2513
sS'brian'
p8075
I7703
sS'camels'
p8076
I1446
sS'brownstone'
p8077
I7664
sS'toddles'
p8078
I6951
sS'toddler'
p8079
I290
sS'ashy'
p8080
I6045
sS'hurdles'
p8081
I1833
sS'attend'
p8082
I5854
sS'masks'
p8083
I1556
sS'wrist'
p8084
I5336
sS'ethnic'
p8085
I3908
sS'footpath'
p8086
I5902
sS'sculptures'
p8087
I5750
sS'light'
p8088
I289
sS'straps'
p8089
I2151
sS'crawling'
p8090
I1425
sS'necklace'
p8091
I949
sS'saturated'
p8092
I4516
sS'reeling'
p8093
I5334
sS'whilst'
p8094
I312
sS'looks'
p8095
I115
sS'badges'
p8096
I4900
sS'underwater'
p8097
I674
sS'grafitti'
p8098
I4527
sS'wilderness'
p8099
I2501
sS'terriers'
p8100
I2559
sS'glee'
p8101
I6644
sS'flautist'
p8102
I5858
sS'restrain'
p8103
I7843
sS'inspecting'
p8104
I2931
sS'orange'
p8105
I87
sS'covered'
p8106
I163
sS'holiday'
p8107
I7369
sS'crowds'
p8108
I2575
sS'jukebox'
p8109
I4049
sS'belted'
p8110
I6351
sS'adornment'
p8111
I8090
sS'crash'
p8112
I2303
sS'orthodox'
p8113
I6800
sS'material'
p8114
I2358
sS'flew'
p8115
I4859
sS'snoopy'
p8116
I4142
sS'emerald'
p8117
I8404
sS'flea'
p8118
I5001
sS'articles'
p8119
I5905
sS'easel'
p8120
I4016
sS'tram'
p8121
I4402
sS'overshirt'
p8122
I5175
sS'oppenents'
p8123
I7752
sS'trimmed'
p8124
I3797
sS'cocker'
p8125
I8490
sS'rockets'
p8126
I5602
sS'blacktop'
p8127
I3189
sS'bills'
p8128
I3686
sS'tray'
p8129
I2280
sS'cry'
p8130
I3148
sS'headwraps'
p8131
I4968
sS'related'
p8132
I8220
sS'our'
p8133
I5042
sS'80'
p8134
I8161
sS'84'
p8135
I5127
sS'out'
p8136
I83
sS'tabloid'
p8137
I7514
sS'parasailing'
p8138
I1814
sS'magizine'
p8139
I5173
sS'distnat'
p8140
I5589
sS'performs'
p8141
I432
sS'supports'
p8142
I4048
sS'burrowing'
p8143
I4570
sS'pours'
p8144
I1908
sS'ipod'
p8145
I3514
sS'york'
p8146
I2156
sS'dumpster'
p8147
I3391
sS'sabre'
p8148
I5475
sS'weaves'
p8149
I4489
sS'organic'
p8150
I8107
sS'conversation'
p8151
I2520
sS'submissive'
p8152
I7511
sS'manicured'
p8153
I3381
sS'biting'
p8154
I486
sS'orca'
p8155
I6665
sS'bouquet'
p8156
I2435
sS'bonnet'
p8157
I5872
sS'coloful'
p8158
I7368
sS'steamy'
p8159
I5576
sS'umbrellas'
p8160
I1765
sS'unknown'
p8161
I3408
sS'snowcapped'
p8162
I1690
sS'potty'
p8163
I3267
sS'swear'
p8164
I8366
sS'agility'
p8165
I1323
sS'headbands'
p8166
I4916
sS'consoling'
p8167
I7201
sS'shelf'
p8168
I3733
sS'shallow'
p8169
I349
sS'dreadlocks'
p8170
I1610
sS'slides'
p8171
I448
sS'reflecting'
p8172
I2211
sS'baptized'
p8173
I7449
sS'mules'
p8174
I8359
sS'accelerates'
p8175
I6356
sS'reentry'
p8176
I6691
sS'behinds'
p8177
I6167
sS'wildebeast'
p8178
I5457
sS'rodderick'
p8179
I7442
sS'hoofs'
p8180
I6199
sS'clemson'
p8181
I6867
sS'sculpture'
p8182
I1193
sS'hairstyle'
p8183
I3092
sS'fowl'
p8184
I7420
sS'splatter'
p8185
I6515
sS'teenagers'
p8186
I876
sS'berets'
p8187
I8286
sS'recyclable'
p8188
I6070
sS'mogul'
p8189
I6935
sS'faux'
p8190
I6083
sS'linked'
p8191
I4706
sS'ringed'
p8192
I5055
sS'catholic'
p8193
I4637
sS'angle'
p8194
I3545
sS'agency'
p8195
I6395
sS'bullrider'
p8196
I7423
sS'which'
p8197
I692
sS'divers'
p8198
I6273
sS'vegetation'
p8199
I2995
sS'patchy'
p8200
I4710
sS'combat'
p8201
I2713
sS'jumpos'
p8202
I8339
sS'who'
p8203
I238
sS'highschool'
p8204
I6748
sS'class'
p8205
I1211
sS'clasp'
p8206
I7237
sS'statute'
p8207
I4154
sS'barista'
p8208
I5212
sS'looker'
p8209
I6673
sS'skying'
p8210
I6168
sS'looked'
p8211
I3183
sS'strawberries'
p8212
I5633
sS'ballons'
p8213
I7220
sS'railling'
p8214
I7585
sS'crocks'
p8215
I4285
sS'balding'
p8216
I3062
sS'bulging'
p8217
I6307
sS'stove'
p8218
I1870
sS'colourfully'
p8219
I6494
sS'perfom'
p8220
I5344
sS'seaweed'
p8221
I1793
sS'chicken'
p8222
I1757
sS'overflow'
p8223
I8149
sS'filmed'
p8224
I3931
sS'clutching'
p8225
I3906
sS'headresses'
p8226
I7820
sS'surroundings'
p8227
I5781
sS'sunflowers'
p8228
I4164
sS'piano'
p8229
I2120
sS'local'
p8230
I3386
sS'cube'
p8231
I7095
sS'skims'
p8232
I6740
sS'watching'
p8233
I211
sS'sponsors'
p8234
I7613
sS'payphone'
p8235
I6897
sS'ones'
p8236
I6268
sS'stadning'
p8237
I7448
sS'words'
p8238
I2239
sS'streetway'
p8239
I7215
sS'chips'
p8240
I4521
sS'rite'
p8241
I4145
sS'belts'
p8242
I3327
sS'married'
p8243
I3985
sS'sheperds'
p8244
I6000
sS'waterfalls'
p8245
I2560
sS'cleavage'
p8246
I8094
sS'view'
p8247
I478
sS'unison'
p8248
I3107
sS'buzzes'
p8249
I5404
sS'turbulent'
p8250
I5372
sS'barrels'
p8251
I3884
sS'closer'
p8252
I6389
sS'closes'
p8253
I2680
sS'gliders'
p8254
I5411
sS'backview'
p8255
I5757
sS'broach'
p8256
I5428
sS'identification'
p8257
I7117
sS'closed'
p8258
I1170
sS'frustrated'
p8259
I8427
sS'pants'
p8260
I206
sS'ability'
p8261
I7064
sS'headscarfs'
p8262
I3699
sS'opening'
p8263
I1646
sS'joy'
p8264
I2042
sS'beverages'
p8265
I3953
sS'huts'
p8266
I3010
sS'infants'
p8267
I6417
sS'jog'
p8268
I2957
sS'stucco'
p8269
I8368
sS'courthouse'
p8270
I5826
sS'lifeboat'
p8271
I6384
sS'canopy'
p8272
I2602
sS'safely'
p8273
I3510
sS'chutes'
p8274
I8438
sS'wall'
p8275
I108
sS'smilling'
p8276
I5011
sS'walk'
p8277
I181
sS'confronts'
p8278
I4407
sS'trays'
p8279
I4264
sS'occured'
p8280
I6185
sS'motorbike'
p8281
I835
sS'hindu'
p8282
I7649
sS'reindeer'
p8283
I3574
sS'ladles'
p8284
I5108
sS'shawled'
p8285
I7486
sS'shimp'
p8286
I5371
sS'butchers'
p8287
I8169
sS'mike'
p8288
I7046
sS'verizon'
p8289
I6506
sS'painted'
p8290
I593
sS'interrupts'
p8291
I7851
sS'sillhouetted'
p8292
I8448
sS'backback'
p8293
I7092
sS'maroon'
p8294
I2180
sS'cavorting'
p8295
I6678
sS'overturn'
p8296
I7454
sS'walkways'
p8297
I5980
sS'present'
p8298
I3833
sS'abandoned'
p8299
I2890
sS'will'
p8300
I3031
sS'stunning'
p8301
I4144
sS'wild'
p8302
I1680
sS'layer'
p8303
I4476
sS'ringing'
p8304
I3540
sS'lakeside'
p8305
I5236
sS'drips'
p8306
I7911
sS'bystanders'
p8307
I4280
sS'gothic'
p8308
I4601
sS'cowgirls'
p8309
I7841
sS'unzipping'
p8310
I6954
sS'perhaps'
p8311
I4518
sS'vintage'
p8312
I3804
sS'cine'
p8313
I5192
sS'waitresses'
p8314
I7732
sS'cross'
p8315
I533
sS'member'
p8316
I1778
sS'brandishes'
p8317
I8057
sS'inch'
p8318
I7783
sS'gets'
p8319
I405
sS'cellphones'
p8320
I2552
sS'elbows'
p8321
I7431
sS'coached'
p8322
I7570
sS'recline'
p8323
I6089
sS'coaches'
p8324
I6463
sS'student'
p8325
I4922
sS'pedal'
p8326
I3893
sS'lobby'
p8327
I3004
sS'warming'
p8328
I5368
sS'banging'
p8329
I8155
sS'fighting'
p8330
I342
sS'equiment'
p8331
I8361
sS'english'
p8332
I4816
sS'breaker'
p8333
I6093
sS'bandanna'
p8334
I821
sS'rocker'
p8335
I3535
sS'nadal'
p8336
I4995
sS'rocket'
p8337
I2074
sS'heavily'
p8338
I1807
sS'half'
p8339
I791
sS'cloaks'
p8340
I4445
sS'cries'
p8341
I2164
sS'treeless'
p8342
I5345
sS'otuside'
p8343
I6446
sS'fishing'
p8344
I404
sS'happiness'
p8345
I8131
sS'toilets'
p8346
I3336
sS'rapid'
p8347
I5577
sS'point'
p8348
I1566
sS'sky'
p8349
I319
sS'discuss'
p8350
I4465
sS'book'
p8351
I514
sS'attractive'
p8352
I3259
sS'tawny'
p8353
I6444
sS'sparking'
p8354
I6742
sS'jars'
p8355
I5769
sS'ski'
p8356
I415
sS'identical'
p8357
I1688
sS'sick'
p8358
I6878
sS'masquerade'
p8359
I5887
sS'conoes'
p8360
I6201
sS'protesters'
p8361
I3346
sS'know'
p8362
I4863
sS'facial'
p8363
I1816
sS'raincoats'
p8364
I6437
sS'press'
p8365
I5330
sS'doughnut'
p8366
I4634
sS'kingsworth'
p8367
I6802
sS'shephard'
p8368
I2308
sS'miami'
p8369
I1106
sS'loser'
p8370
I6976
sS'loses'
p8371
I6523
sS'kawasaki'
p8372
I4860
sS'because'
p8373
I3626
sS'shabby'
p8374
I7761
sS'tumble'
p8375
I7830
sS'scared'
p8376
I3942
sS'church'
p8377
I1278
sS'searching'
p8378
I3234
sS'spelunkers'
p8379
I4096
sS'twirling'
p8380
I2599
sS'persue'
p8381
I8227
sS'wodden'
p8382
I8074
sS'leaf'
p8383
I1811
sS'lead'
p8384
I1399
sS'lean'
p8385
I1010
sS'markers'
p8386
I3045
sS'leap'
p8387
I935
sS'campfire'
p8388
I1544
sS'odeon'
p8389
I4729
sS'earrings'
p8390
I2154
sS'glacial'
p8391
I7012
sS'leader'
p8392
I6731
sS'ripped'
p8393
I7972
sS'miniskirts'
p8394
I6505
sS'dangling'
p8395
I1867
sS'mitt'
p8396
I2883
sS'pasta'
p8397
I2804
sS'fluorescent'
p8398
I6507
sS'ponytailed'
p8399
I7656
sS'carried'
p8400
I1918
sS'saddle'
p8401
I2477
sS'column'
p8402
I2901
sS'spilled'
p8403
I3792
sS'shipping'
p8404
I3783
sS'carries'
p8405
I353
sS'carrier'
p8406
I2346
sS'sweat'
p8407
I3659
sS'converging'
p8408
I5487
sS'owl'
p8409
I4050
sS'herbs'
p8410
I7866
sS'own'
p8411
I1809
sS'cocked'
p8412
I8143
sS'gymnastic'
p8413
I2741
sS'backlegs'
p8414
I7524
sS'headphone'
p8415
I4227
sS'soaks'
p8416
I7850
sS'weather'
p8417
I1458
sS'champ'
p8418
I7461
sS'brush'
p8419
I1251
sS'yankee'
p8420
I4200
sS'rowboat'
p8421
I1620
sS'van'
p8422
I1454
sS'artifacts'
p8423
I5408
sS'spiral'
p8424
I3089
sS'groomed'
p8425
I4937
sS'cliff'
p8426
I257
sS'vat'
p8427
I6304
sS'footwork'
p8428
I6726
sS'sweatband'
p8429
I4950
sS'dirtbed'
p8430
I7577
sS'granny'
p8431
I5239
sS'squeeze'
p8432
I3471
sS'challenges'
p8433
I8229
sS'made'
p8434
I965
sS'hitter'
p8435
I4590
sS'protesting'
p8436
I3956
sS'yorkie'
p8437
I3464
sS'medatative'
p8438
I5363
sS'karts'
p8439
I5310
sS'record'
p8440
I2424
sS'below'
p8441
I656
sS'persian'
p8442
I8122
sS'staue'
p8443
I6811
sS'cake'
p8444
I1113
sS'demonstrate'
p8445
I8011
sS'nugent'
p8446
I7704
sS'rickety'
p8447
I4362
sS'stirring'
p8448
I6037
sS'zebra'
p8449
I5318
sS'year'
p8450
I8167
sS'gnawing'
p8451
I2488
sS'boardwalk'
p8452
I1139
sS'trotting'
p8453
I1653
sS'trailing'
p8454
I2421
sS'roughhousing'
p8455
I4533
sS'diplomas'
p8456
I8223
sS'incredible'
p8457
I4495
sS'guitarist'
p8458
I2026
sS'boot'
p8459
I3502
sS'waterskiing'
p8460
I1147
sS'other'
p8461
I81
sS'branch'
p8462
I720
sS'sloping'
p8463
I3493
sS'junk'
p8464
I3589
sS'kinds'
p8465
I7775
sS'shredded'
p8466
I8023
sS'mulch'
p8467
I4525
sS'apportioned'
p8468
I5716
sS'pumps'
p8469
I2818
sS'squeak'
p8470
I6317
sS'upwards'
p8471
I3402
sS'pods'
p8472
I7685
sS'sash'
p8473
I2950
s.